; Listing generated by Microsoft (R) Optimizing Compiler Version 18.00.21005.1 

include listing.inc


PUBLIC	??_7Writer@Json@@6B@				; Json::Writer::`vftable'
PUBLIC	??_R4Writer@Json@@6B@				; Json::Writer::`RTTI Complete Object Locator'
PUBLIC	??_R3StreamWriterBuilder@Json@@8		; Json::StreamWriterBuilder::`RTTI Class Hierarchy Descriptor'
PUBLIC	??_7FastWriter@Json@@6B@			; Json::FastWriter::`vftable'
PUBLIC	??_R1A@?0A@EA@FastWriter@Json@@8		; Json::FastWriter::`RTTI Base Class Descriptor at (0,-1,0,64)'
PUBLIC	??_R0?AVStreamWriterBuilder@Json@@@8		; Json::StreamWriterBuilder `RTTI Type Descriptor'
PUBLIC	??_R0?AVFastWriter@Json@@@8			; Json::FastWriter `RTTI Type Descriptor'
PUBLIC	??_7StreamWriterBuilder@Json@@6B@		; Json::StreamWriterBuilder::`vftable'
PUBLIC	??_R1A@?0A@EA@StreamWriter@Json@@8		; Json::StreamWriter::`RTTI Base Class Descriptor at (0,-1,0,64)'
PUBLIC	??_R4Factory@StreamWriter@Json@@6B@		; Json::StreamWriter::Factory::`RTTI Complete Object Locator'
PUBLIC	??_R0?AVStreamWriter@Json@@@8			; Json::StreamWriter `RTTI Type Descriptor'
PUBLIC	??_R0?AVFactory@StreamWriter@Json@@@8		; Json::StreamWriter::Factory `RTTI Type Descriptor'
PUBLIC	??_R4FastWriter@Json@@6B@			; Json::FastWriter::`RTTI Complete Object Locator'
PUBLIC	??_R0?AUBuiltStyledStreamWriter@Json@@@8	; Json::BuiltStyledStreamWriter `RTTI Type Descriptor'
PUBLIC	??_R3BuiltStyledStreamWriter@Json@@8		; Json::BuiltStyledStreamWriter::`RTTI Class Hierarchy Descriptor'
PUBLIC	??_7Factory@StreamWriter@Json@@6B@		; Json::StreamWriter::Factory::`vftable'
PUBLIC	??_R2FastWriter@Json@@8				; Json::FastWriter::`RTTI Base Class Array'
PUBLIC	??_R4BuiltStyledStreamWriter@Json@@6B@		; Json::BuiltStyledStreamWriter::`RTTI Complete Object Locator'
PUBLIC	??_R2BuiltStyledStreamWriter@Json@@8		; Json::BuiltStyledStreamWriter::`RTTI Base Class Array'
PUBLIC	??_R3Factory@StreamWriter@Json@@8		; Json::StreamWriter::Factory::`RTTI Class Hierarchy Descriptor'
PUBLIC	??_R2StreamWriter@Json@@8			; Json::StreamWriter::`RTTI Base Class Array'
PUBLIC	??_7BuiltStyledStreamWriter@Json@@6B@		; Json::BuiltStyledStreamWriter::`vftable'
PUBLIC	??_R4StreamWriter@Json@@6B@			; Json::StreamWriter::`RTTI Complete Object Locator'
PUBLIC	??_R1A@?0A@EA@StreamWriterBuilder@Json@@8	; Json::StreamWriterBuilder::`RTTI Base Class Descriptor at (0,-1,0,64)'
PUBLIC	??_R3StreamWriter@Json@@8			; Json::StreamWriter::`RTTI Class Hierarchy Descriptor'
PUBLIC	??_R3FastWriter@Json@@8				; Json::FastWriter::`RTTI Class Hierarchy Descriptor'
PUBLIC	??_R2StreamWriterBuilder@Json@@8		; Json::StreamWriterBuilder::`RTTI Base Class Array'
PUBLIC	??_R2Factory@StreamWriter@Json@@8		; Json::StreamWriter::Factory::`RTTI Base Class Array'
PUBLIC	??_R4StreamWriterBuilder@Json@@6B@		; Json::StreamWriterBuilder::`RTTI Complete Object Locator'
PUBLIC	??_R1A@?0A@EA@Factory@StreamWriter@Json@@8	; Json::StreamWriter::Factory::`RTTI Base Class Descriptor at (0,-1,0,64)'
PUBLIC	??_R1A@?0A@EA@BuiltStyledStreamWriter@Json@@8	; Json::BuiltStyledStreamWriter::`RTTI Base Class Descriptor at (0,-1,0,64)'
PUBLIC	??_7StreamWriter@Json@@6B@			; Json::StreamWriter::`vftable'
PUBLIC	??_C@_06CEAIPCMK@?$CF?$CF?4?$CFdg?$AA@		; `string'
PUBLIC	??_C@_02ONCLHLPE@?40?$AA@			; `string'
PUBLIC	??_C@_01KGKMHCOC@e?$AA@				; `string'
PUBLIC	??_C@_04MLLLIHIP@null?$AA@			; `string'
PUBLIC	??_C@_03ICJPMMHB@NaN?$AA@			; `string'
PUBLIC	??_C@_08JDOGHFII@?91e?$CL9999?$AA@		; `string'
PUBLIC	??_C@_09BLDCEMOH@?9Infinity?$AA@		; `string'
PUBLIC	??_C@_07GDHDNLLL@1e?$CL9999?$AA@		; `string'
PUBLIC	??_C@_08KEBCLIFP@Infinity?$AA@			; `string'
PUBLIC	??_C@_01BJJEKLCA@?$CC?$AA@			; `string'
PUBLIC	??_C@_07FKPPGBGM@?$CC?2?$AI?$AM?6?$AN?7?$AA@	; `string'
PUBLIC	??_C@_02HDBGODGB@?2?2?$AA@			; `string'
PUBLIC	??_C@_02MCKKLHBJ@?2?$CC?$AA@			; `string'
PUBLIC	??_C@_02FGLPDNBI@?2f?$AA@			; `string'
PUBLIC	??_C@_02DCNDPIBM@?2b?$AA@			; `string'
PUBLIC	??_C@_02HIBBOKEN@?2r?$AA@			; `string'
PUBLIC	??_C@_02JOGGLHBA@?2n?$AA@			; `string'
PUBLIC	??_C@_02DHFAHMIK@?2u?$AA@			; `string'
PUBLIC	??_C@_02COELENML@?2t?$AA@			; `string'
PUBLIC	??_C@_01HCONENDN@?$HL?$AA@			; `string'
PUBLIC	??_C@_02MCILKGOH@?$HL?$HN?$AA@			; `string'
PUBLIC	??_C@_01CELHOKLL@?$HN?$AA@			; `string'
PUBLIC	??_C@_03MCPBMLDJ@?5?3?5?$AA@			; `string'
PUBLIC	??_C@_01OHGJGJJP@?$FL?$AA@			; `string'
PUBLIC	??_C@_02GPECMEKF@?$FL?$FN?$AA@			; `string'
PUBLIC	??_C@_02PFNDMDBO@?$FL?5?$AA@			; `string'
PUBLIC	??_C@_01LBDDMOBJ@?$FN?$AA@			; `string'
PUBLIC	??_C@_02DHOGEDBE@?5?$FN?$AA@			; `string'
PUBLIC	??_C@_02KEGNLNML@?0?5?$AA@			; `string'
PUBLIC	??_C@_0N@KEKHFENH@commentStyle?$AA@		; `string'
PUBLIC	??_C@_0M@BBOMBMCK@indentation?$AA@		; `string'
PUBLIC	??_C@_0BF@JIKFMOIK@dropNullPlaceholders?$AA@	; `string'
PUBLIC	??_C@_0BI@GHONPDJP@enableYAMLCompatibility?$AA@	; `string'
PUBLIC	??_C@_09HJGOLHNF@precision?$AA@			; `string'
PUBLIC	??_C@_0BB@MPBFLDFF@useSpecialFloats?$AA@	; `string'
PUBLIC	??_C@_04OHJIHAFH@None?$AA@			; `string'
PUBLIC	??_C@_03HFJGAJFE@All?$AA@			; `string'
PUBLIC	??_C@_0CF@BGMIIABI@commentStyle?5must?5be?5?8All?8?5or?5?8N@ ; `string'
EXTRN	__imp_?fill@?$basic_ios@DU?$char_traits@D@std@@@std@@QEAADD@Z:PROC
EXTRN	__imp_strpbrk:PROC
EXTRN	__imp__dtest:PROC
EXTRN	__imp_strstr:PROC
EXTRN	__imp_?setw@std@@YA?AU?$_Smanip@_J@1@_J@Z:PROC
EXTRN	__imp_sprintf:PROC
EXTRN	__imp_?setf@ios_base@std@@QEAAHH@Z:PROC
EXTRN	__imp_??6?$basic_ostream@DU?$char_traits@D@std@@@std@@QEAAAEAV01@P6AAEAVios_base@1@AEAV21@@Z@Z:PROC
;	COMDAT ??_C@_0CF@BGMIIABI@commentStyle?5must?5be?5?8All?8?5or?5?8N@
CONST	SEGMENT
??_C@_0CF@BGMIIABI@commentStyle?5must?5be?5?8All?8?5or?5?8N@ DB 'commentS'
	DB	'tyle must be ''All'' or ''None''', 00H	; `string'
CONST	ENDS
;	COMDAT ??_C@_03HFJGAJFE@All?$AA@
CONST	SEGMENT
??_C@_03HFJGAJFE@All?$AA@ DB 'All', 00H			; `string'
CONST	ENDS
;	COMDAT ??_C@_04OHJIHAFH@None?$AA@
CONST	SEGMENT
??_C@_04OHJIHAFH@None?$AA@ DB 'None', 00H		; `string'
CONST	ENDS
;	COMDAT ??_C@_0BB@MPBFLDFF@useSpecialFloats?$AA@
CONST	SEGMENT
??_C@_0BB@MPBFLDFF@useSpecialFloats?$AA@ DB 'useSpecialFloats', 00H ; `string'
CONST	ENDS
;	COMDAT ??_C@_09HJGOLHNF@precision?$AA@
CONST	SEGMENT
??_C@_09HJGOLHNF@precision?$AA@ DB 'precision', 00H	; `string'
CONST	ENDS
;	COMDAT ??_C@_0BI@GHONPDJP@enableYAMLCompatibility?$AA@
CONST	SEGMENT
??_C@_0BI@GHONPDJP@enableYAMLCompatibility?$AA@ DB 'enableYAMLCompatibili'
	DB	'ty', 00H					; `string'
CONST	ENDS
;	COMDAT ??_C@_0BF@JIKFMOIK@dropNullPlaceholders?$AA@
CONST	SEGMENT
??_C@_0BF@JIKFMOIK@dropNullPlaceholders?$AA@ DB 'dropNullPlaceholders', 00H ; `string'
CONST	ENDS
;	COMDAT ??_C@_0M@BBOMBMCK@indentation?$AA@
CONST	SEGMENT
??_C@_0M@BBOMBMCK@indentation?$AA@ DB 'indentation', 00H ; `string'
CONST	ENDS
;	COMDAT ??_C@_0N@KEKHFENH@commentStyle?$AA@
CONST	SEGMENT
??_C@_0N@KEKHFENH@commentStyle?$AA@ DB 'commentStyle', 00H ; `string'
CONST	ENDS
;	COMDAT ??_C@_02KEGNLNML@?0?5?$AA@
CONST	SEGMENT
??_C@_02KEGNLNML@?0?5?$AA@ DB ', ', 00H			; `string'
CONST	ENDS
;	COMDAT ??_C@_02DHOGEDBE@?5?$FN?$AA@
CONST	SEGMENT
??_C@_02DHOGEDBE@?5?$FN?$AA@ DB ' ]', 00H		; `string'
CONST	ENDS
;	COMDAT ??_C@_01LBDDMOBJ@?$FN?$AA@
CONST	SEGMENT
??_C@_01LBDDMOBJ@?$FN?$AA@ DB ']', 00H			; `string'
CONST	ENDS
;	COMDAT ??_C@_02PFNDMDBO@?$FL?5?$AA@
CONST	SEGMENT
??_C@_02PFNDMDBO@?$FL?5?$AA@ DB '[ ', 00H		; `string'
CONST	ENDS
;	COMDAT ??_C@_02GPECMEKF@?$FL?$FN?$AA@
CONST	SEGMENT
??_C@_02GPECMEKF@?$FL?$FN?$AA@ DB '[]', 00H		; `string'
CONST	ENDS
;	COMDAT ??_C@_01OHGJGJJP@?$FL?$AA@
CONST	SEGMENT
??_C@_01OHGJGJJP@?$FL?$AA@ DB '[', 00H			; `string'
CONST	ENDS
;	COMDAT ??_C@_03MCPBMLDJ@?5?3?5?$AA@
CONST	SEGMENT
??_C@_03MCPBMLDJ@?5?3?5?$AA@ DB ' : ', 00H		; `string'
CONST	ENDS
;	COMDAT ??_C@_01CELHOKLL@?$HN?$AA@
CONST	SEGMENT
??_C@_01CELHOKLL@?$HN?$AA@ DB '}', 00H			; `string'
CONST	ENDS
;	COMDAT ??_C@_02MCILKGOH@?$HL?$HN?$AA@
CONST	SEGMENT
??_C@_02MCILKGOH@?$HL?$HN?$AA@ DB '{}', 00H		; `string'
CONST	ENDS
;	COMDAT ??_C@_01HCONENDN@?$HL?$AA@
CONST	SEGMENT
??_C@_01HCONENDN@?$HL?$AA@ DB '{', 00H			; `string'
CONST	ENDS
;	COMDAT ??_C@_02COELENML@?2t?$AA@
CONST	SEGMENT
??_C@_02COELENML@?2t?$AA@ DB '\t', 00H			; `string'
CONST	ENDS
;	COMDAT ??_C@_02DHFAHMIK@?2u?$AA@
CONST	SEGMENT
??_C@_02DHFAHMIK@?2u?$AA@ DB '\u', 00H			; `string'
CONST	ENDS
;	COMDAT ??_C@_02JOGGLHBA@?2n?$AA@
CONST	SEGMENT
??_C@_02JOGGLHBA@?2n?$AA@ DB '\n', 00H			; `string'
CONST	ENDS
;	COMDAT ??_C@_02HIBBOKEN@?2r?$AA@
CONST	SEGMENT
??_C@_02HIBBOKEN@?2r?$AA@ DB '\r', 00H			; `string'
CONST	ENDS
;	COMDAT ??_C@_02DCNDPIBM@?2b?$AA@
CONST	SEGMENT
??_C@_02DCNDPIBM@?2b?$AA@ DB '\b', 00H			; `string'
CONST	ENDS
;	COMDAT ??_C@_02FGLPDNBI@?2f?$AA@
CONST	SEGMENT
??_C@_02FGLPDNBI@?2f?$AA@ DB '\f', 00H			; `string'
CONST	ENDS
;	COMDAT ??_C@_02MCKKLHBJ@?2?$CC?$AA@
CONST	SEGMENT
??_C@_02MCKKLHBJ@?2?$CC?$AA@ DB '\"', 00H		; `string'
CONST	ENDS
;	COMDAT ??_C@_02HDBGODGB@?2?2?$AA@
CONST	SEGMENT
??_C@_02HDBGODGB@?2?2?$AA@ DB '\\', 00H			; `string'
CONST	ENDS
;	COMDAT ??_C@_07FKPPGBGM@?$CC?2?$AI?$AM?6?$AN?7?$AA@
CONST	SEGMENT
??_C@_07FKPPGBGM@?$CC?2?$AI?$AM?6?$AN?7?$AA@ DB '"\', 08H, 0cH, 0aH, 0dH, 09H
	DB	00H						; `string'
CONST	ENDS
;	COMDAT ??_C@_01BJJEKLCA@?$CC?$AA@
CONST	SEGMENT
??_C@_01BJJEKLCA@?$CC?$AA@ DB '"', 00H			; `string'
CONST	ENDS
;	COMDAT ??_C@_08KEBCLIFP@Infinity?$AA@
CONST	SEGMENT
??_C@_08KEBCLIFP@Infinity?$AA@ DB 'Infinity', 00H	; `string'
CONST	ENDS
;	COMDAT ??_C@_07GDHDNLLL@1e?$CL9999?$AA@
CONST	SEGMENT
??_C@_07GDHDNLLL@1e?$CL9999?$AA@ DB '1e+9999', 00H	; `string'
CONST	ENDS
;	COMDAT ??_C@_09BLDCEMOH@?9Infinity?$AA@
CONST	SEGMENT
??_C@_09BLDCEMOH@?9Infinity?$AA@ DB '-Infinity', 00H	; `string'
CONST	ENDS
;	COMDAT ??_C@_08JDOGHFII@?91e?$CL9999?$AA@
CONST	SEGMENT
??_C@_08JDOGHFII@?91e?$CL9999?$AA@ DB '-1e+9999', 00H	; `string'
CONST	ENDS
;	COMDAT ??_C@_03ICJPMMHB@NaN?$AA@
CONST	SEGMENT
??_C@_03ICJPMMHB@NaN?$AA@ DB 'NaN', 00H			; `string'
CONST	ENDS
;	COMDAT ??_C@_04MLLLIHIP@null?$AA@
CONST	SEGMENT
??_C@_04MLLLIHIP@null?$AA@ DB 'null', 00H		; `string'
CONST	ENDS
;	COMDAT ??_C@_01KGKMHCOC@e?$AA@
CONST	SEGMENT
??_C@_01KGKMHCOC@e?$AA@ DB 'e', 00H			; `string'
CONST	ENDS
;	COMDAT ??_C@_02ONCLHLPE@?40?$AA@
CONST	SEGMENT
??_C@_02ONCLHLPE@?40?$AA@ DB '.0', 00H			; `string'
CONST	ENDS
;	COMDAT ??_C@_06CEAIPCMK@?$CF?$CF?4?$CFdg?$AA@
CONST	SEGMENT
??_C@_06CEAIPCMK@?$CF?$CF?4?$CFdg?$AA@ DB '%%.%dg', 00H	; `string'
CONST	ENDS
;	COMDAT ??_7StreamWriter@Json@@6B@
CONST	SEGMENT
??_7StreamWriter@Json@@6B@ DQ FLAT:??_R4StreamWriter@Json@@6B@ ; Json::StreamWriter::`vftable'
	DQ	FLAT:??_EStreamWriter@Json@@UEAAPEAXI@Z
	DQ	FLAT:_purecall
CONST	ENDS
;	COMDAT ??_R1A@?0A@EA@BuiltStyledStreamWriter@Json@@8
rdata$r	SEGMENT
??_R1A@?0A@EA@BuiltStyledStreamWriter@Json@@8 DD imagerel ??_R0?AUBuiltStyledStreamWriter@Json@@@8 ; Json::BuiltStyledStreamWriter::`RTTI Base Class Descriptor at (0,-1,0,64)'
	DD	01H
	DD	00H
	DD	0ffffffffH
	DD	00H
	DD	040H
	DD	imagerel ??_R3BuiltStyledStreamWriter@Json@@8
rdata$r	ENDS
;	COMDAT ??_R1A@?0A@EA@Factory@StreamWriter@Json@@8
rdata$r	SEGMENT
??_R1A@?0A@EA@Factory@StreamWriter@Json@@8 DD imagerel ??_R0?AVFactory@StreamWriter@Json@@@8 ; Json::StreamWriter::Factory::`RTTI Base Class Descriptor at (0,-1,0,64)'
	DD	00H
	DD	00H
	DD	0ffffffffH
	DD	00H
	DD	040H
	DD	imagerel ??_R3Factory@StreamWriter@Json@@8
rdata$r	ENDS
;	COMDAT ??_R4StreamWriterBuilder@Json@@6B@
rdata$r	SEGMENT
??_R4StreamWriterBuilder@Json@@6B@ DD 01H		; Json::StreamWriterBuilder::`RTTI Complete Object Locator'
	DD	00H
	DD	00H
	DD	imagerel ??_R0?AVStreamWriterBuilder@Json@@@8
	DD	imagerel ??_R3StreamWriterBuilder@Json@@8
	DD	imagerel ??_R4StreamWriterBuilder@Json@@6B@
rdata$r	ENDS
;	COMDAT ??_R2Factory@StreamWriter@Json@@8
rdata$r	SEGMENT
??_R2Factory@StreamWriter@Json@@8 DD imagerel ??_R1A@?0A@EA@Factory@StreamWriter@Json@@8 ; Json::StreamWriter::Factory::`RTTI Base Class Array'
	ORG $+3
rdata$r	ENDS
;	COMDAT ??_R2StreamWriterBuilder@Json@@8
rdata$r	SEGMENT
??_R2StreamWriterBuilder@Json@@8 DD imagerel ??_R1A@?0A@EA@StreamWriterBuilder@Json@@8 ; Json::StreamWriterBuilder::`RTTI Base Class Array'
	DD	imagerel ??_R1A@?0A@EA@Factory@StreamWriter@Json@@8
	ORG $+3
rdata$r	ENDS
;	COMDAT ??_R3FastWriter@Json@@8
rdata$r	SEGMENT
??_R3FastWriter@Json@@8 DD 00H				; Json::FastWriter::`RTTI Class Hierarchy Descriptor'
	DD	00H
	DD	02H
	DD	imagerel ??_R2FastWriter@Json@@8
rdata$r	ENDS
;	COMDAT ??_R3StreamWriter@Json@@8
rdata$r	SEGMENT
??_R3StreamWriter@Json@@8 DD 00H			; Json::StreamWriter::`RTTI Class Hierarchy Descriptor'
	DD	00H
	DD	01H
	DD	imagerel ??_R2StreamWriter@Json@@8
rdata$r	ENDS
;	COMDAT ??_R1A@?0A@EA@StreamWriterBuilder@Json@@8
rdata$r	SEGMENT
??_R1A@?0A@EA@StreamWriterBuilder@Json@@8 DD imagerel ??_R0?AVStreamWriterBuilder@Json@@@8 ; Json::StreamWriterBuilder::`RTTI Base Class Descriptor at (0,-1,0,64)'
	DD	01H
	DD	00H
	DD	0ffffffffH
	DD	00H
	DD	040H
	DD	imagerel ??_R3StreamWriterBuilder@Json@@8
rdata$r	ENDS
;	COMDAT ??_R4StreamWriter@Json@@6B@
rdata$r	SEGMENT
??_R4StreamWriter@Json@@6B@ DD 01H			; Json::StreamWriter::`RTTI Complete Object Locator'
	DD	00H
	DD	00H
	DD	imagerel ??_R0?AVStreamWriter@Json@@@8
	DD	imagerel ??_R3StreamWriter@Json@@8
	DD	imagerel ??_R4StreamWriter@Json@@6B@
rdata$r	ENDS
;	COMDAT ??_7BuiltStyledStreamWriter@Json@@6B@
CONST	SEGMENT
??_7BuiltStyledStreamWriter@Json@@6B@ DQ FLAT:??_R4BuiltStyledStreamWriter@Json@@6B@ ; Json::BuiltStyledStreamWriter::`vftable'
	DQ	FLAT:??_EBuiltStyledStreamWriter@Json@@UEAAPEAXI@Z
	DQ	FLAT:?write@BuiltStyledStreamWriter@Json@@UEAAHAEBVValue@2@PEAV?$basic_ostream@DU?$char_traits@D@std@@@std@@@Z
CONST	ENDS
;	COMDAT ??_R2StreamWriter@Json@@8
rdata$r	SEGMENT
??_R2StreamWriter@Json@@8 DD imagerel ??_R1A@?0A@EA@StreamWriter@Json@@8 ; Json::StreamWriter::`RTTI Base Class Array'
	ORG $+3
rdata$r	ENDS
;	COMDAT ??_R3Factory@StreamWriter@Json@@8
rdata$r	SEGMENT
??_R3Factory@StreamWriter@Json@@8 DD 00H		; Json::StreamWriter::Factory::`RTTI Class Hierarchy Descriptor'
	DD	00H
	DD	01H
	DD	imagerel ??_R2Factory@StreamWriter@Json@@8
rdata$r	ENDS
;	COMDAT ??_R2BuiltStyledStreamWriter@Json@@8
rdata$r	SEGMENT
??_R2BuiltStyledStreamWriter@Json@@8 DD imagerel ??_R1A@?0A@EA@BuiltStyledStreamWriter@Json@@8 ; Json::BuiltStyledStreamWriter::`RTTI Base Class Array'
	DD	imagerel ??_R1A@?0A@EA@StreamWriter@Json@@8
	ORG $+3
rdata$r	ENDS
;	COMDAT ??_R4BuiltStyledStreamWriter@Json@@6B@
rdata$r	SEGMENT
??_R4BuiltStyledStreamWriter@Json@@6B@ DD 01H		; Json::BuiltStyledStreamWriter::`RTTI Complete Object Locator'
	DD	00H
	DD	00H
	DD	imagerel ??_R0?AUBuiltStyledStreamWriter@Json@@@8
	DD	imagerel ??_R3BuiltStyledStreamWriter@Json@@8
	DD	imagerel ??_R4BuiltStyledStreamWriter@Json@@6B@
rdata$r	ENDS
;	COMDAT ??_R2FastWriter@Json@@8
rdata$r	SEGMENT
??_R2FastWriter@Json@@8 DD imagerel ??_R1A@?0A@EA@FastWriter@Json@@8 ; Json::FastWriter::`RTTI Base Class Array'
	DD	imagerel ??_R1A@?0A@EA@Writer@Json@@8
	ORG $+3
rdata$r	ENDS
;	COMDAT ??_7Factory@StreamWriter@Json@@6B@
CONST	SEGMENT
??_7Factory@StreamWriter@Json@@6B@ DQ FLAT:??_R4Factory@StreamWriter@Json@@6B@ ; Json::StreamWriter::Factory::`vftable'
	DQ	FLAT:??_EFactory@StreamWriter@Json@@UEAAPEAXI@Z
	DQ	FLAT:_purecall
CONST	ENDS
;	COMDAT ??_R3BuiltStyledStreamWriter@Json@@8
rdata$r	SEGMENT
??_R3BuiltStyledStreamWriter@Json@@8 DD 00H		; Json::BuiltStyledStreamWriter::`RTTI Class Hierarchy Descriptor'
	DD	00H
	DD	02H
	DD	imagerel ??_R2BuiltStyledStreamWriter@Json@@8
rdata$r	ENDS
;	COMDAT ??_R0?AUBuiltStyledStreamWriter@Json@@@8
data$r	SEGMENT
??_R0?AUBuiltStyledStreamWriter@Json@@@8 DQ FLAT:??_7type_info@@6B@ ; Json::BuiltStyledStreamWriter `RTTI Type Descriptor'
	DQ	0000000000000000H
	DB	'.?AUBuiltStyledStreamWriter@Json@@', 00H
data$r	ENDS
;	COMDAT ??_R4FastWriter@Json@@6B@
rdata$r	SEGMENT
??_R4FastWriter@Json@@6B@ DD 01H			; Json::FastWriter::`RTTI Complete Object Locator'
	DD	00H
	DD	00H
	DD	imagerel ??_R0?AVFastWriter@Json@@@8
	DD	imagerel ??_R3FastWriter@Json@@8
	DD	imagerel ??_R4FastWriter@Json@@6B@
rdata$r	ENDS
;	COMDAT ??_R0?AVFactory@StreamWriter@Json@@@8
data$r	SEGMENT
??_R0?AVFactory@StreamWriter@Json@@@8 DQ FLAT:??_7type_info@@6B@ ; Json::StreamWriter::Factory `RTTI Type Descriptor'
	DQ	0000000000000000H
	DB	'.?AVFactory@StreamWriter@Json@@', 00H
data$r	ENDS
;	COMDAT ??_R0?AVStreamWriter@Json@@@8
data$r	SEGMENT
??_R0?AVStreamWriter@Json@@@8 DQ FLAT:??_7type_info@@6B@ ; Json::StreamWriter `RTTI Type Descriptor'
	DQ	0000000000000000H
	DB	'.?AVStreamWriter@Json@@', 00H
data$r	ENDS
;	COMDAT ??_R4Factory@StreamWriter@Json@@6B@
rdata$r	SEGMENT
??_R4Factory@StreamWriter@Json@@6B@ DD 01H		; Json::StreamWriter::Factory::`RTTI Complete Object Locator'
	DD	00H
	DD	00H
	DD	imagerel ??_R0?AVFactory@StreamWriter@Json@@@8
	DD	imagerel ??_R3Factory@StreamWriter@Json@@8
	DD	imagerel ??_R4Factory@StreamWriter@Json@@6B@
rdata$r	ENDS
;	COMDAT ??_R1A@?0A@EA@StreamWriter@Json@@8
rdata$r	SEGMENT
??_R1A@?0A@EA@StreamWriter@Json@@8 DD imagerel ??_R0?AVStreamWriter@Json@@@8 ; Json::StreamWriter::`RTTI Base Class Descriptor at (0,-1,0,64)'
	DD	00H
	DD	00H
	DD	0ffffffffH
	DD	00H
	DD	040H
	DD	imagerel ??_R3StreamWriter@Json@@8
rdata$r	ENDS
;	COMDAT ??_7StreamWriterBuilder@Json@@6B@
CONST	SEGMENT
??_7StreamWriterBuilder@Json@@6B@ DQ FLAT:??_R4StreamWriterBuilder@Json@@6B@ ; Json::StreamWriterBuilder::`vftable'
	DQ	FLAT:??_EStreamWriterBuilder@Json@@UEAAPEAXI@Z
	DQ	FLAT:?newStreamWriter@StreamWriterBuilder@Json@@UEBAPEAVStreamWriter@2@XZ
CONST	ENDS
;	COMDAT ??_R0?AVFastWriter@Json@@@8
data$r	SEGMENT
??_R0?AVFastWriter@Json@@@8 DQ FLAT:??_7type_info@@6B@	; Json::FastWriter `RTTI Type Descriptor'
	DQ	0000000000000000H
	DB	'.?AVFastWriter@Json@@', 00H
data$r	ENDS
;	COMDAT ??_R0?AVStreamWriterBuilder@Json@@@8
data$r	SEGMENT
??_R0?AVStreamWriterBuilder@Json@@@8 DQ FLAT:??_7type_info@@6B@ ; Json::StreamWriterBuilder `RTTI Type Descriptor'
	DQ	0000000000000000H
	DB	'.?AVStreamWriterBuilder@Json@@', 00H
data$r	ENDS
;	COMDAT ??_R1A@?0A@EA@FastWriter@Json@@8
rdata$r	SEGMENT
??_R1A@?0A@EA@FastWriter@Json@@8 DD imagerel ??_R0?AVFastWriter@Json@@@8 ; Json::FastWriter::`RTTI Base Class Descriptor at (0,-1,0,64)'
	DD	01H
	DD	00H
	DD	0ffffffffH
	DD	00H
	DD	040H
	DD	imagerel ??_R3FastWriter@Json@@8
rdata$r	ENDS
;	COMDAT ??_7FastWriter@Json@@6B@
CONST	SEGMENT
??_7FastWriter@Json@@6B@ DQ FLAT:??_R4FastWriter@Json@@6B@ ; Json::FastWriter::`vftable'
	DQ	FLAT:??_EFastWriter@Json@@UEAAPEAXI@Z
	DQ	FLAT:?write@FastWriter@Json@@UEAA?AV?$basic_string@DU?$char_traits@D@std@@V?$allocator@D@2@@std@@AEBVValue@2@@Z
CONST	ENDS
;	COMDAT ??_R3StreamWriterBuilder@Json@@8
rdata$r	SEGMENT
??_R3StreamWriterBuilder@Json@@8 DD 00H			; Json::StreamWriterBuilder::`RTTI Class Hierarchy Descriptor'
	DD	00H
	DD	02H
	DD	imagerel ??_R2StreamWriterBuilder@Json@@8
rdata$r	ENDS
;	COMDAT ??_R4Writer@Json@@6B@
rdata$r	SEGMENT
??_R4Writer@Json@@6B@ DD 01H				; Json::Writer::`RTTI Complete Object Locator'
	DD	00H
	DD	00H
	DD	imagerel ??_R0?AVWriter@Json@@@8
	DD	imagerel ??_R3Writer@Json@@8
	DD	imagerel ??_R4Writer@Json@@6B@
rdata$r	ENDS
;	COMDAT ??_7Writer@Json@@6B@
CONST	SEGMENT
??_7Writer@Json@@6B@ DQ FLAT:??_R4Writer@Json@@6B@	; Json::Writer::`vftable'
	DQ	FLAT:??_EWriter@Json@@UEAAPEAXI@Z
	DQ	FLAT:_purecall
PUBLIC	??0?$_Fillobj@D@std@@QEAA@D@Z			; std::_Fillobj<char>::_Fillobj<char>
PUBLIC	??$?6DU?$char_traits@D@std@@_J@std@@YAAEAV?$basic_ostream@DU?$char_traits@D@std@@@0@AEAV10@AEBU?$_Smanip@_J@0@@Z ; std::operator<<<char,std::char_traits<char>,__int64>
PUBLIC	??$?6DU?$char_traits@D@std@@D@std@@YAAEAV?$basic_ostream@DU?$char_traits@D@std@@@0@AEAV10@AEBU?$_Fillobj@D@0@@Z ; std::operator<<<char,std::char_traits<char>,char>
PUBLIC	??$setfill@D@std@@YA?AU?$_Fillobj@D@0@D@Z	; std::setfill<char>
PUBLIC	??$isfinite@N@@YA_NN@Z				; isfinite<double>
PUBLIC	??9?$_String_const_iterator@V?$_String_val@U?$_Simple_types@D@std@@@std@@@std@@QEBA_NAEBV01@@Z ; std::_String_const_iterator<std::_String_val<std::_Simple_types<char> > >::operator!=
PUBLIC	??H?$_String_const_iterator@V?$_String_val@U?$_Simple_types@D@std@@@std@@@std@@QEBA?AV01@_J@Z ; std::_String_const_iterator<std::_String_val<std::_Simple_types<char> > >::operator+
PUBLIC	??E?$_String_const_iterator@V?$_String_val@U?$_Simple_types@D@std@@@std@@@std@@QEAAAEAV01@XZ ; std::_String_const_iterator<std::_String_val<std::_Simple_types<char> > >::operator++
PUBLIC	?newStreamWriter@StreamWriterBuilder@Json@@UEBAPEAVStreamWriter@2@XZ ; Json::StreamWriterBuilder::newStreamWriter
PUBLIC	??1StreamWriterBuilder@Json@@UEAA@XZ		; Json::StreamWriterBuilder::~StreamWriterBuilder
PUBLIC	??_GStreamWriterBuilder@Json@@UEAAPEAXI@Z	; Json::StreamWriterBuilder::`scalar deleting destructor'
PUBLIC	??_GFactory@StreamWriter@Json@@UEAAPEAXI@Z	; Json::StreamWriter::Factory::`scalar deleting destructor'
PUBLIC	??1Factory@StreamWriter@Json@@UEAA@XZ		; Json::StreamWriter::Factory::~Factory
PUBLIC	??1StreamWriter@Json@@UEAA@XZ			; Json::StreamWriter::~StreamWriter
PUBLIC	??_GStreamWriter@Json@@UEAAPEAXI@Z		; Json::StreamWriter::`scalar deleting destructor'
PUBLIC	??0StreamWriter@Json@@QEAA@XZ			; Json::StreamWriter::StreamWriter
PUBLIC	?hasCommentForValue@BuiltStyledStreamWriter@Json@@CA_NAEBVValue@2@@Z ; Json::BuiltStyledStreamWriter::hasCommentForValue
PUBLIC	?writeCommentAfterValueOnSameLine@BuiltStyledStreamWriter@Json@@AEAAXAEBVValue@2@@Z ; Json::BuiltStyledStreamWriter::writeCommentAfterValueOnSameLine
PUBLIC	?writeCommentBeforeValue@BuiltStyledStreamWriter@Json@@AEAAXAEBVValue@2@@Z ; Json::BuiltStyledStreamWriter::writeCommentBeforeValue
PUBLIC	?unindent@BuiltStyledStreamWriter@Json@@AEAAXXZ	; Json::BuiltStyledStreamWriter::unindent
PUBLIC	?indent@BuiltStyledStreamWriter@Json@@AEAAXXZ	; Json::BuiltStyledStreamWriter::indent
PUBLIC	?writeWithIndent@BuiltStyledStreamWriter@Json@@AEAAXAEBV?$basic_string@DU?$char_traits@D@std@@V?$allocator@D@2@@std@@@Z ; Json::BuiltStyledStreamWriter::writeWithIndent
PUBLIC	?writeIndent@BuiltStyledStreamWriter@Json@@AEAAXXZ ; Json::BuiltStyledStreamWriter::writeIndent
PUBLIC	?pushValue@BuiltStyledStreamWriter@Json@@AEAAXAEBV?$basic_string@DU?$char_traits@D@std@@V?$allocator@D@2@@std@@@Z ; Json::BuiltStyledStreamWriter::pushValue
PUBLIC	?isMultineArray@BuiltStyledStreamWriter@Json@@AEAA_NAEBVValue@2@@Z ; Json::BuiltStyledStreamWriter::isMultineArray
PUBLIC	?writeArrayValue@BuiltStyledStreamWriter@Json@@AEAAXAEBVValue@2@@Z ; Json::BuiltStyledStreamWriter::writeArrayValue
PUBLIC	?writeValue@BuiltStyledStreamWriter@Json@@AEAAXAEBVValue@2@@Z ; Json::BuiltStyledStreamWriter::writeValue
PUBLIC	?write@BuiltStyledStreamWriter@Json@@UEAAHAEBVValue@2@PEAV?$basic_ostream@DU?$char_traits@D@std@@@std@@@Z ; Json::BuiltStyledStreamWriter::write
PUBLIC	??1BuiltStyledStreamWriter@Json@@UEAA@XZ	; Json::BuiltStyledStreamWriter::~BuiltStyledStreamWriter
PUBLIC	??_GBuiltStyledStreamWriter@Json@@UEAAPEAXI@Z	; Json::BuiltStyledStreamWriter::`scalar deleting destructor'
PUBLIC	??0BuiltStyledStreamWriter@Json@@QEAA@AEBV?$basic_string@DU?$char_traits@D@std@@V?$allocator@D@2@@std@@W4Enum@CommentStyle@1@000_NI@Z ; Json::BuiltStyledStreamWriter::BuiltStyledStreamWriter
PUBLIC	?hasCommentForValue@StyledWriter@Json@@AEAA_NAEBVValue@2@@Z ; Json::StyledWriter::hasCommentForValue
PUBLIC	?writeCommentAfterValueOnSameLine@StyledWriter@Json@@AEAAXAEBVValue@2@@Z ; Json::StyledWriter::writeCommentAfterValueOnSameLine
PUBLIC	?writeCommentBeforeValue@StyledWriter@Json@@AEAAXAEBVValue@2@@Z ; Json::StyledWriter::writeCommentBeforeValue
PUBLIC	?unindent@StyledWriter@Json@@AEAAXXZ		; Json::StyledWriter::unindent
PUBLIC	?indent@StyledWriter@Json@@AEAAXXZ		; Json::StyledWriter::indent
PUBLIC	?writeWithIndent@StyledWriter@Json@@AEAAXAEBV?$basic_string@DU?$char_traits@D@std@@V?$allocator@D@2@@std@@@Z ; Json::StyledWriter::writeWithIndent
PUBLIC	?writeIndent@StyledWriter@Json@@AEAAXXZ		; Json::StyledWriter::writeIndent
PUBLIC	?pushValue@StyledWriter@Json@@AEAAXAEBV?$basic_string@DU?$char_traits@D@std@@V?$allocator@D@2@@std@@@Z ; Json::StyledWriter::pushValue
PUBLIC	?isMultineArray@StyledWriter@Json@@AEAA_NAEBVValue@2@@Z ; Json::StyledWriter::isMultineArray
PUBLIC	?writeArrayValue@StyledWriter@Json@@AEAAXAEBVValue@2@@Z ; Json::StyledWriter::writeArrayValue
PUBLIC	?writeValue@StyledWriter@Json@@AEAAXAEBVValue@2@@Z ; Json::StyledWriter::writeValue
PUBLIC	?writeValue@FastWriter@Json@@AEAAXAEBVValue@2@@Z ; Json::FastWriter::writeValue
PUBLIC	?write@FastWriter@Json@@UEAA?AV?$basic_string@DU?$char_traits@D@std@@V?$allocator@D@2@@std@@AEBVValue@2@@Z ; Json::FastWriter::write
PUBLIC	??0Writer@Json@@QEAA@XZ				; Json::Writer::Writer
PUBLIC	??_GWriter@Json@@UEAAPEAXI@Z			; Json::Writer::`scalar deleting destructor'
PUBLIC	?valueToQuotedString@Json@@YA?AV?$basic_string@DU?$char_traits@D@std@@V?$allocator@D@2@@std@@PEBD@Z ; Json::valueToQuotedString
PUBLIC	?valueToString@Json@@YA?AV?$basic_string@DU?$char_traits@D@std@@V?$allocator@D@2@@std@@_N@Z ; Json::valueToString
PUBLIC	?valueToString@?A0xcff6a387@Json@@YA?AV?$basic_string@DU?$char_traits@D@std@@V?$allocator@D@2@@std@@N_NI@Z ; Json::`anonymous namespace'::valueToString
PUBLIC	??_GFastWriter@Json@@UEAAPEAXI@Z		; Json::FastWriter::`scalar deleting destructor'
PUBLIC	??1FastWriter@Json@@UEAA@XZ			; Json::FastWriter::~FastWriter
PUBLIC	?uppercase@std@@YAAEAVios_base@1@AEAV21@@Z	; std::uppercase
PUBLIC	?strstr@@YAPEADPEADPEBD@Z			; strstr
PUBLIC	?fpclassify@@YAHN@Z				; fpclassify
PUBLIC	??1Writer@Json@@UEAA@XZ				; Json::Writer::~Writer
PUBLIC	?write@StyledWriter@Json@@UEAA?AV?$basic_string@DU?$char_traits@D@std@@V?$allocator@D@2@@std@@AEBVValue@2@@Z ; Json::StyledWriter::write
PUBLIC	??0StyledWriter@Json@@QEAA@XZ			; Json::StyledWriter::StyledWriter
PUBLIC	?valueToString@Json@@YA?AV?$basic_string@DU?$char_traits@D@std@@V?$allocator@D@2@@std@@_J@Z ; Json::valueToString
PUBLIC	?valueToString@Json@@YA?AV?$basic_string@DU?$char_traits@D@std@@V?$allocator@D@2@@std@@_K@Z ; Json::valueToString
PUBLIC	?valueToString@Json@@YA?AV?$basic_string@DU?$char_traits@D@std@@V?$allocator@D@2@@std@@N@Z ; Json::valueToString
EXTRN	??_EStreamWriterBuilder@Json@@UEAAPEAXI@Z:PROC	; Json::StreamWriterBuilder::`vector deleting destructor'
EXTRN	??_EWriter@Json@@UEAAPEAXI@Z:PROC		; Json::Writer::`vector deleting destructor'
EXTRN	??_EFastWriter@Json@@UEAAPEAXI@Z:PROC		; Json::FastWriter::`vector deleting destructor'
EXTRN	??_EFactory@StreamWriter@Json@@UEAAPEAXI@Z:PROC	; Json::StreamWriter::Factory::`vector deleting destructor'
EXTRN	??_EStreamWriter@Json@@UEAAPEAXI@Z:PROC		; Json::StreamWriter::`vector deleting destructor'
EXTRN	??_EBuiltStyledStreamWriter@Json@@UEAAPEAXI@Z:PROC ; Json::BuiltStyledStreamWriter::`vector deleting destructor'
	ALIGN	4

_Tuple_alloc DB	01H DUP (?)
	ALIGN	4

ignore	DB	01H DUP (?)
	ALIGN	4

allocator_arg DB 01H DUP (?)
	ALIGN	4

piecewise_construct DB 01H DUP (?)
_BSS	ENDS
;	COMDAT pdata
pdata	SEGMENT
$pdata$??$?6DU?$char_traits@D@std@@_J@std@@YAAEAV?$basic_ostream@DU?$char_traits@D@std@@@0@AEAV10@AEBU?$_Smanip@_J@0@@Z DD imagerel $LN6
	DD	imagerel $LN6+59
	DD	imagerel $unwind$??$?6DU?$char_traits@D@std@@_J@std@@YAAEAV?$basic_ostream@DU?$char_traits@D@std@@@0@AEAV10@AEBU?$_Smanip@_J@0@@Z
pdata	ENDS
;	COMDAT pdata
pdata	SEGMENT
$pdata$??$isfinite@N@@YA_NN@Z DD imagerel $LN6
	DD	imagerel $LN6+32
	DD	imagerel $unwind$??$isfinite@N@@YA_NN@Z
pdata	ENDS
;	COMDAT pdata
pdata	SEGMENT
$pdata$?newStreamWriter@StreamWriterBuilder@Json@@UEBAPEAVStreamWriter@2@XZ DD imagerel $LN949
	DD	imagerel $LN949+1575
	DD	imagerel $unwind$?newStreamWriter@StreamWriterBuilder@Json@@UEBAPEAVStreamWriter@2@XZ
pdata	ENDS
;	COMDAT pdata
pdata	SEGMENT
$pdata$?dtor$7@?0??newStreamWriter@StreamWriterBuilder@Json@@UEBAPEAVStreamWriter@2@XZ@4HA DD imagerel ?dtor$7@?0??newStreamWriter@StreamWriterBuilder@Json@@UEBAPEAVStreamWriter@2@XZ@4HA
	DD	imagerel ?dtor$7@?0??newStreamWriter@StreamWriterBuilder@Json@@UEBAPEAVStreamWriter@2@XZ@4HA+22
	DD	imagerel $unwind$?dtor$7@?0??newStreamWriter@StreamWriterBuilder@Json@@UEBAPEAVStreamWriter@2@XZ@4HA
pdata	ENDS
;	COMDAT pdata
pdata	SEGMENT
$pdata$?dtor$13@?0??newStreamWriter@StreamWriterBuilder@Json@@UEBAPEAVStreamWriter@2@XZ@4HA DD imagerel ?dtor$13@?0??newStreamWriter@StreamWriterBuilder@Json@@UEBAPEAVStreamWriter@2@XZ@4HA
	DD	imagerel ?dtor$13@?0??newStreamWriter@StreamWriterBuilder@Json@@UEBAPEAVStreamWriter@2@XZ@4HA+22
	DD	imagerel $unwind$?dtor$13@?0??newStreamWriter@StreamWriterBuilder@Json@@UEBAPEAVStreamWriter@2@XZ@4HA
pdata	ENDS
;	COMDAT pdata
pdata	SEGMENT
$pdata$?dtor$19@?0??newStreamWriter@StreamWriterBuilder@Json@@UEBAPEAVStreamWriter@2@XZ@4HA DD imagerel ?dtor$19@?0??newStreamWriter@StreamWriterBuilder@Json@@UEBAPEAVStreamWriter@2@XZ@4HA
	DD	imagerel ?dtor$19@?0??newStreamWriter@StreamWriterBuilder@Json@@UEBAPEAVStreamWriter@2@XZ@4HA+22
	DD	imagerel $unwind$?dtor$19@?0??newStreamWriter@StreamWriterBuilder@Json@@UEBAPEAVStreamWriter@2@XZ@4HA
pdata	ENDS
;	COMDAT pdata
pdata	SEGMENT
$pdata$?dtor$25@?0??newStreamWriter@StreamWriterBuilder@Json@@UEBAPEAVStreamWriter@2@XZ@4HA DD imagerel ?dtor$25@?0??newStreamWriter@StreamWriterBuilder@Json@@UEBAPEAVStreamWriter@2@XZ@4HA
	DD	imagerel ?dtor$25@?0??newStreamWriter@StreamWriterBuilder@Json@@UEBAPEAVStreamWriter@2@XZ@4HA+22
	DD	imagerel $unwind$?dtor$25@?0??newStreamWriter@StreamWriterBuilder@Json@@UEBAPEAVStreamWriter@2@XZ@4HA
pdata	ENDS
;	COMDAT pdata
pdata	SEGMENT
$pdata$?dtor$31@?0??newStreamWriter@StreamWriterBuilder@Json@@UEBAPEAVStreamWriter@2@XZ@4HA DD imagerel ?dtor$31@?0??newStreamWriter@StreamWriterBuilder@Json@@UEBAPEAVStreamWriter@2@XZ@4HA
	DD	imagerel ?dtor$31@?0??newStreamWriter@StreamWriterBuilder@Json@@UEBAPEAVStreamWriter@2@XZ@4HA+22
	DD	imagerel $unwind$?dtor$31@?0??newStreamWriter@StreamWriterBuilder@Json@@UEBAPEAVStreamWriter@2@XZ@4HA
pdata	ENDS
;	COMDAT pdata
pdata	SEGMENT
$pdata$?dtor$37@?0??newStreamWriter@StreamWriterBuilder@Json@@UEBAPEAVStreamWriter@2@XZ@4HA DD imagerel ?dtor$37@?0??newStreamWriter@StreamWriterBuilder@Json@@UEBAPEAVStreamWriter@2@XZ@4HA
	DD	imagerel ?dtor$37@?0??newStreamWriter@StreamWriterBuilder@Json@@UEBAPEAVStreamWriter@2@XZ@4HA+22
	DD	imagerel $unwind$?dtor$37@?0??newStreamWriter@StreamWriterBuilder@Json@@UEBAPEAVStreamWriter@2@XZ@4HA
pdata	ENDS
;	COMDAT pdata
pdata	SEGMENT
$pdata$??1StreamWriterBuilder@Json@@UEAA@XZ DD imagerel $LN7
	DD	imagerel $LN7+58
	DD	imagerel $unwind$??1StreamWriterBuilder@Json@@UEAA@XZ
pdata	ENDS
;	COMDAT pdata
pdata	SEGMENT
$pdata$??_GStreamWriterBuilder@Json@@UEAAPEAXI@Z DD imagerel $LN11
	DD	imagerel $LN11+87
	DD	imagerel $unwind$??_GStreamWriterBuilder@Json@@UEAAPEAXI@Z
pdata	ENDS
;	COMDAT pdata
pdata	SEGMENT
$pdata$??_GFactory@StreamWriter@Json@@UEAAPEAXI@Z DD imagerel $LN8
	DD	imagerel $LN8+39
	DD	imagerel $unwind$??_GFactory@StreamWriter@Json@@UEAAPEAXI@Z
pdata	ENDS
;	COMDAT pdata
pdata	SEGMENT
$pdata$??_GStreamWriter@Json@@UEAAPEAXI@Z DD imagerel $LN8
	DD	imagerel $LN8+39
	DD	imagerel $unwind$??_GStreamWriter@Json@@UEAAPEAXI@Z
pdata	ENDS
;	COMDAT pdata
pdata	SEGMENT
$pdata$?writeCommentAfterValueOnSameLine@BuiltStyledStreamWriter@Json@@AEAAXAEBVValue@2@@Z DD imagerel $LN120
	DD	imagerel $LN120+314
	DD	imagerel $unwind$?writeCommentAfterValueOnSameLine@BuiltStyledStreamWriter@Json@@AEAAXAEBVValue@2@@Z
pdata	ENDS
;	COMDAT pdata
pdata	SEGMENT
$pdata$?writeCommentBeforeValue@BuiltStyledStreamWriter@Json@@AEAAXAEBVValue@2@@Z DD imagerel $LN116
	DD	imagerel $LN116+313
	DD	imagerel $unwind$?writeCommentBeforeValue@BuiltStyledStreamWriter@Json@@AEAAXAEBVValue@2@@Z
pdata	ENDS
;	COMDAT pdata
pdata	SEGMENT
$pdata$?writeWithIndent@BuiltStyledStreamWriter@Json@@AEAAXAEBV?$basic_string@DU?$char_traits@D@std@@V?$allocator@D@2@@std@@@Z DD imagerel $LN10
	DD	imagerel $LN10+38
	DD	imagerel $unwind$?writeWithIndent@BuiltStyledStreamWriter@Json@@AEAAXAEBV?$basic_string@DU?$char_traits@D@std@@V?$allocator@D@2@@std@@@Z
pdata	ENDS
;	COMDAT pdata
pdata	SEGMENT
$pdata$0$?writeWithIndent@BuiltStyledStreamWriter@Json@@AEAAXAEBV?$basic_string@DU?$char_traits@D@std@@V?$allocator@D@2@@std@@@Z DD imagerel $LN10+38
	DD	imagerel $LN10+65
	DD	imagerel $chain$0$?writeWithIndent@BuiltStyledStreamWriter@Json@@AEAAXAEBV?$basic_string@DU?$char_traits@D@std@@V?$allocator@D@2@@std@@@Z
pdata	ENDS
;	COMDAT pdata
pdata	SEGMENT
$pdata$1$?writeWithIndent@BuiltStyledStreamWriter@Json@@AEAAXAEBV?$basic_string@DU?$char_traits@D@std@@V?$allocator@D@2@@std@@@Z DD imagerel $LN10+65
	DD	imagerel $LN10+95
	DD	imagerel $chain$1$?writeWithIndent@BuiltStyledStreamWriter@Json@@AEAAXAEBV?$basic_string@DU?$char_traits@D@std@@V?$allocator@D@2@@std@@@Z
pdata	ENDS
;	COMDAT pdata
pdata	SEGMENT
$pdata$?writeIndent@BuiltStyledStreamWriter@Json@@AEAAXXZ DD imagerel $LN7
	DD	imagerel $LN7+11
	DD	imagerel $unwind$?writeIndent@BuiltStyledStreamWriter@Json@@AEAAXXZ
pdata	ENDS
;	COMDAT pdata
pdata	SEGMENT
$pdata$0$?writeIndent@BuiltStyledStreamWriter@Json@@AEAAXXZ DD imagerel $LN7+11
	DD	imagerel $LN7+51
	DD	imagerel $chain$0$?writeIndent@BuiltStyledStreamWriter@Json@@AEAAXXZ
pdata	ENDS
;	COMDAT pdata
pdata	SEGMENT
$pdata$1$?writeIndent@BuiltStyledStreamWriter@Json@@AEAAXXZ DD imagerel $LN7+51
	DD	imagerel $LN7+56
	DD	imagerel $chain$1$?writeIndent@BuiltStyledStreamWriter@Json@@AEAAXXZ
pdata	ENDS
;	COMDAT pdata
pdata	SEGMENT
$pdata$2$?writeIndent@BuiltStyledStreamWriter@Json@@AEAAXXZ DD imagerel $LN7+56
	DD	imagerel $LN7+61
	DD	imagerel $chain$2$?writeIndent@BuiltStyledStreamWriter@Json@@AEAAXXZ
pdata	ENDS
;	COMDAT pdata
pdata	SEGMENT
$pdata$?isMultineArray@BuiltStyledStreamWriter@Json@@AEAA_NAEBVValue@2@@Z DD imagerel $LN99
	DD	imagerel $LN99+225
	DD	imagerel $unwind$?isMultineArray@BuiltStyledStreamWriter@Json@@AEAA_NAEBVValue@2@@Z
pdata	ENDS
;	COMDAT pdata
pdata	SEGMENT
$pdata$0$?isMultineArray@BuiltStyledStreamWriter@Json@@AEAA_NAEBVValue@2@@Z DD imagerel $LN99+225
	DD	imagerel $LN99+336
	DD	imagerel $chain$0$?isMultineArray@BuiltStyledStreamWriter@Json@@AEAA_NAEBVValue@2@@Z
pdata	ENDS
;	COMDAT pdata
pdata	SEGMENT
$pdata$1$?isMultineArray@BuiltStyledStreamWriter@Json@@AEAA_NAEBVValue@2@@Z DD imagerel $LN99+336
	DD	imagerel $LN99+382
	DD	imagerel $chain$1$?isMultineArray@BuiltStyledStreamWriter@Json@@AEAA_NAEBVValue@2@@Z
pdata	ENDS
;	COMDAT pdata
pdata	SEGMENT
$pdata$?writeArrayValue@BuiltStyledStreamWriter@Json@@AEAAXAEBVValue@2@@Z DD imagerel $LN349
	DD	imagerel $LN349+957
	DD	imagerel $unwind$?writeArrayValue@BuiltStyledStreamWriter@Json@@AEAAXAEBVValue@2@@Z
pdata	ENDS
;	COMDAT pdata
pdata	SEGMENT
$pdata$?writeValue@BuiltStyledStreamWriter@Json@@AEAAXAEBVValue@2@@Z DD imagerel $LN714
	DD	imagerel $LN714+1484
	DD	imagerel $unwind$?writeValue@BuiltStyledStreamWriter@Json@@AEAAXAEBVValue@2@@Z
pdata	ENDS
;	COMDAT pdata
pdata	SEGMENT
$pdata$?write@BuiltStyledStreamWriter@Json@@UEAAHAEBVValue@2@PEAV?$basic_ostream@DU?$char_traits@D@std@@@std@@@Z DD imagerel $LN22
	DD	imagerel $LN22+182
	DD	imagerel $unwind$?write@BuiltStyledStreamWriter@Json@@UEAAHAEBVValue@2@PEAV?$basic_ostream@DU?$char_traits@D@std@@@std@@@Z
pdata	ENDS
;	COMDAT pdata
pdata	SEGMENT
$pdata$??1BuiltStyledStreamWriter@Json@@UEAA@XZ DD imagerel $LN168
	DD	imagerel $LN168+249
	DD	imagerel $unwind$??1BuiltStyledStreamWriter@Json@@UEAA@XZ
pdata	ENDS
;	COMDAT pdata
pdata	SEGMENT
$pdata$??_GBuiltStyledStreamWriter@Json@@UEAAPEAXI@Z DD imagerel $LN6
	DD	imagerel $LN6+48
	DD	imagerel $unwind$??_GBuiltStyledStreamWriter@Json@@UEAAPEAXI@Z
pdata	ENDS
;	COMDAT pdata
pdata	SEGMENT
$pdata$??0BuiltStyledStreamWriter@Json@@QEAA@AEBV?$basic_string@DU?$char_traits@D@std@@V?$allocator@D@2@@std@@W4Enum@CommentStyle@1@000_NI@Z DD imagerel $LN226
	DD	imagerel $LN226+300
	DD	imagerel $unwind$??0BuiltStyledStreamWriter@Json@@QEAA@AEBV?$basic_string@DU?$char_traits@D@std@@V?$allocator@D@2@@std@@W4Enum@CommentStyle@1@000_NI@Z
pdata	ENDS
;	COMDAT pdata
pdata	SEGMENT
$pdata$?writeCommentAfterValueOnSameLine@StyledWriter@Json@@AEAAXAEBVValue@2@@Z DD imagerel $LN138
	DD	imagerel $LN138+333
	DD	imagerel $unwind$?writeCommentAfterValueOnSameLine@StyledWriter@Json@@AEAAXAEBVValue@2@@Z
pdata	ENDS
;	COMDAT pdata
pdata	SEGMENT
$pdata$?writeCommentBeforeValue@StyledWriter@Json@@AEAAXAEBVValue@2@@Z DD imagerel $LN173
	DD	imagerel $LN173+449
	DD	imagerel $unwind$?writeCommentBeforeValue@StyledWriter@Json@@AEAAXAEBVValue@2@@Z
pdata	ENDS
;	COMDAT pdata
pdata	SEGMENT
$pdata$?indent@StyledWriter@Json@@AEAAXXZ DD imagerel $LN78
	DD	imagerel $LN78+133
	DD	imagerel $unwind$?indent@StyledWriter@Json@@AEAAXXZ
pdata	ENDS
;	COMDAT pdata
pdata	SEGMENT
$pdata$?writeWithIndent@StyledWriter@Json@@AEAAXAEBV?$basic_string@DU?$char_traits@D@std@@V?$allocator@D@2@@std@@@Z DD imagerel $LN31
	DD	imagerel $LN31+134
	DD	imagerel $unwind$?writeWithIndent@StyledWriter@Json@@AEAAXAEBV?$basic_string@DU?$char_traits@D@std@@V?$allocator@D@2@@std@@@Z
pdata	ENDS
;	COMDAT pdata
pdata	SEGMENT
$pdata$?writeIndent@StyledWriter@Json@@AEAAXXZ DD imagerel $LN25
	DD	imagerel $LN25+96
	DD	imagerel $unwind$?writeIndent@StyledWriter@Json@@AEAAXXZ
pdata	ENDS
;	COMDAT pdata
pdata	SEGMENT
$pdata$?isMultineArray@StyledWriter@Json@@AEAA_NAEBVValue@2@@Z DD imagerel $LN99
	DD	imagerel $LN99+222
	DD	imagerel $unwind$?isMultineArray@StyledWriter@Json@@AEAA_NAEBVValue@2@@Z
pdata	ENDS
;	COMDAT pdata
pdata	SEGMENT
$pdata$0$?isMultineArray@StyledWriter@Json@@AEAA_NAEBVValue@2@@Z DD imagerel $LN99+222
	DD	imagerel $LN99+326
	DD	imagerel $chain$0$?isMultineArray@StyledWriter@Json@@AEAA_NAEBVValue@2@@Z
pdata	ENDS
;	COMDAT pdata
pdata	SEGMENT
$pdata$1$?isMultineArray@StyledWriter@Json@@AEAA_NAEBVValue@2@@Z DD imagerel $LN99+326
	DD	imagerel $LN99+369
	DD	imagerel $chain$1$?isMultineArray@StyledWriter@Json@@AEAA_NAEBVValue@2@@Z
pdata	ENDS
;	COMDAT pdata
pdata	SEGMENT
$pdata$?writeArrayValue@StyledWriter@Json@@AEAAXAEBVValue@2@@Z DD imagerel $LN414
	DD	imagerel $LN414+927
	DD	imagerel $unwind$?writeArrayValue@StyledWriter@Json@@AEAAXAEBVValue@2@@Z
pdata	ENDS
;	COMDAT pdata
pdata	SEGMENT
$pdata$?writeValue@StyledWriter@Json@@AEAAXAEBVValue@2@@Z DD imagerel $LN807
	DD	imagerel $LN807+1448
	DD	imagerel $unwind$?writeValue@StyledWriter@Json@@AEAAXAEBVValue@2@@Z
pdata	ENDS
;	COMDAT pdata
pdata	SEGMENT
$pdata$?writeValue@FastWriter@Json@@AEAAXAEBVValue@2@@Z DD imagerel $LN438
	DD	imagerel $LN438+1064
	DD	imagerel $unwind$?writeValue@FastWriter@Json@@AEAAXAEBVValue@2@@Z
pdata	ENDS
;	COMDAT pdata
pdata	SEGMENT
$pdata$?write@FastWriter@Json@@UEAA?AV?$basic_string@DU?$char_traits@D@std@@V?$allocator@D@2@@std@@AEBVValue@2@@Z DD imagerel $LN69
	DD	imagerel $LN69+150
	DD	imagerel $unwind$?write@FastWriter@Json@@UEAA?AV?$basic_string@DU?$char_traits@D@std@@V?$allocator@D@2@@std@@AEBVValue@2@@Z
pdata	ENDS
;	COMDAT pdata
pdata	SEGMENT
$pdata$??_GWriter@Json@@UEAAPEAXI@Z DD imagerel $LN8
	DD	imagerel $LN8+39
	DD	imagerel $unwind$??_GWriter@Json@@UEAAPEAXI@Z
pdata	ENDS
;	COMDAT pdata
pdata	SEGMENT
$pdata$?valueToQuotedStringN@Json@@YA?AV?$basic_string@DU?$char_traits@D@std@@V?$allocator@D@2@@std@@PEBDI@Z DD imagerel ?valueToQuotedStringN@Json@@YA?AV?$basic_string@DU?$char_traits@D@std@@V?$allocator@D@2@@std@@PEBDI@Z
	DD	imagerel ?valueToQuotedStringN@Json@@YA?AV?$basic_string@DU?$char_traits@D@std@@V?$allocator@D@2@@std@@PEBDI@Z+1237
	DD	imagerel $unwind$?valueToQuotedStringN@Json@@YA?AV?$basic_string@DU?$char_traits@D@std@@V?$allocator@D@2@@std@@PEBDI@Z
pdata	ENDS
;	COMDAT pdata
pdata	SEGMENT
$pdata$?valueToQuotedString@Json@@YA?AV?$basic_string@DU?$char_traits@D@std@@V?$allocator@D@2@@std@@PEBD@Z DD imagerel $LN580
	DD	imagerel $LN580+1213
	DD	imagerel $unwind$?valueToQuotedString@Json@@YA?AV?$basic_string@DU?$char_traits@D@std@@V?$allocator@D@2@@std@@PEBD@Z
pdata	ENDS
;	COMDAT pdata
pdata	SEGMENT
$pdata$?valueToString@Json@@YA?AV?$basic_string@DU?$char_traits@D@std@@V?$allocator@D@2@@std@@_N@Z DD imagerel $LN51
	DD	imagerel $LN51+94
	DD	imagerel $unwind$?valueToString@Json@@YA?AV?$basic_string@DU?$char_traits@D@std@@V?$allocator@D@2@@std@@_N@Z
pdata	ENDS
;	COMDAT pdata
pdata	SEGMENT
$pdata$?valueToString@?A0xcff6a387@Json@@YA?AV?$basic_string@DU?$char_traits@D@std@@V?$allocator@D@2@@std@@N_NI@Z DD imagerel $LN81
	DD	imagerel $LN81+474
	DD	imagerel $unwind$?valueToString@?A0xcff6a387@Json@@YA?AV?$basic_string@DU?$char_traits@D@std@@V?$allocator@D@2@@std@@N_NI@Z
pdata	ENDS
;	COMDAT pdata
pdata	SEGMENT
$pdata$??_GFastWriter@Json@@UEAAPEAXI@Z DD imagerel $LN42
	DD	imagerel $LN42+101
	DD	imagerel $unwind$??_GFastWriter@Json@@UEAAPEAXI@Z
pdata	ENDS
;	COMDAT pdata
pdata	SEGMENT
$pdata$??1FastWriter@Json@@UEAA@XZ DD imagerel $LN38
	DD	imagerel $LN38+72
	DD	imagerel $unwind$??1FastWriter@Json@@UEAA@XZ
pdata	ENDS
;	COMDAT pdata
pdata	SEGMENT
$pdata$?fpclassify@@YAHN@Z DD imagerel $LN4
	DD	imagerel $LN4+27
	DD	imagerel $unwind$?fpclassify@@YAHN@Z
pdata	ENDS
;	COMDAT pdata
pdata	SEGMENT
$pdata$?write@StyledWriter@Json@@UEAA?AV?$basic_string@DU?$char_traits@D@std@@V?$allocator@D@2@@std@@AEBVValue@2@@Z DD imagerel $LN80
	DD	imagerel $LN80+208
	DD	imagerel $unwind$?write@StyledWriter@Json@@UEAA?AV?$basic_string@DU?$char_traits@D@std@@V?$allocator@D@2@@std@@AEBVValue@2@@Z
pdata	ENDS
;	COMDAT pdata
pdata	SEGMENT
$pdata$?valueToString@Json@@YA?AV?$basic_string@DU?$char_traits@D@std@@V?$allocator@D@2@@std@@_J@Z DD imagerel $LN79
	DD	imagerel $LN79+34
	DD	imagerel $unwind$?valueToString@Json@@YA?AV?$basic_string@DU?$char_traits@D@std@@V?$allocator@D@2@@std@@_J@Z
pdata	ENDS
;	COMDAT pdata
pdata	SEGMENT
$pdata$0$?valueToString@Json@@YA?AV?$basic_string@DU?$char_traits@D@std@@V?$allocator@D@2@@std@@_J@Z DD imagerel $LN79+34
	DD	imagerel $LN79+280
	DD	imagerel $chain$0$?valueToString@Json@@YA?AV?$basic_string@DU?$char_traits@D@std@@V?$allocator@D@2@@std@@_J@Z
pdata	ENDS
;	COMDAT pdata
pdata	SEGMENT
$pdata$1$?valueToString@Json@@YA?AV?$basic_string@DU?$char_traits@D@std@@V?$allocator@D@2@@std@@_J@Z DD imagerel $LN79+280
	DD	imagerel $LN79+334
	DD	imagerel $chain$1$?valueToString@Json@@YA?AV?$basic_string@DU?$char_traits@D@std@@V?$allocator@D@2@@std@@_J@Z
pdata	ENDS
;	COMDAT pdata
pdata	SEGMENT
$pdata$?valueToString@Json@@YA?AV?$basic_string@DU?$char_traits@D@std@@V?$allocator@D@2@@std@@_K@Z DD imagerel $LN59
	DD	imagerel $LN59+173
	DD	imagerel $unwind$?valueToString@Json@@YA?AV?$basic_string@DU?$char_traits@D@std@@V?$allocator@D@2@@std@@_K@Z
pdata	ENDS
;	COMDAT pdata
pdata	SEGMENT
$pdata$?valueToString@Json@@YA?AV?$basic_string@DU?$char_traits@D@std@@V?$allocator@D@2@@std@@N@Z DD imagerel $LN6
	DD	imagerel $LN6+40
	DD	imagerel $unwind$?valueToString@Json@@YA?AV?$basic_string@DU?$char_traits@D@std@@V?$allocator@D@2@@std@@N@Z
pdata	ENDS
;	COMDAT xdata
xdata	SEGMENT
$unwind$?valueToString@Json@@YA?AV?$basic_string@DU?$char_traits@D@std@@V?$allocator@D@2@@std@@N@Z DD 020601H
	DD	030025206H
xdata	ENDS
;	COMDAT xdata
xdata	SEGMENT
$unwind$?valueToString@Json@@YA?AV?$basic_string@DU?$char_traits@D@std@@V?$allocator@D@2@@std@@_K@Z DD 021519H
	DD	030029206H
	DD	imagerel __GSHandlerCheck
	DD	048H
xdata	ENDS
;	COMDAT xdata
xdata	SEGMENT
$chain$1$?valueToString@Json@@YA?AV?$basic_string@DU?$char_traits@D@std@@V?$allocator@D@2@@std@@_J@Z DD 021H
	DD	imagerel $LN79
	DD	imagerel $LN79+34
	DD	imagerel $unwind$?valueToString@Json@@YA?AV?$basic_string@DU?$char_traits@D@std@@V?$allocator@D@2@@std@@_J@Z
xdata	ENDS
;	COMDAT xdata
xdata	SEGMENT
$chain$0$?valueToString@Json@@YA?AV?$basic_string@DU?$char_traits@D@std@@V?$allocator@D@2@@std@@_J@Z DD 020521H
	DD	0d3405H
	DD	imagerel $LN79
	DD	imagerel $LN79+34
	DD	imagerel $unwind$?valueToString@Json@@YA?AV?$basic_string@DU?$char_traits@D@std@@V?$allocator@D@2@@std@@_J@Z
xdata	ENDS
;	COMDAT xdata
xdata	SEGMENT
$unwind$?valueToString@Json@@YA?AV?$basic_string@DU?$char_traits@D@std@@V?$allocator@D@2@@std@@_J@Z DD 021519H
	DD	070029206H
	DD	imagerel __GSHandlerCheck
	DD	048H
xdata	ENDS
;	COMDAT xdata
xdata	SEGMENT
$unwind$?write@StyledWriter@Json@@UEAA?AV?$basic_string@DU?$char_traits@D@std@@V?$allocator@D@2@@std@@AEBVValue@2@@Z DD 0a1a01H
	DD	0b741aH
	DD	0a641aH
	DD	09541aH
	DD	08341aH
	DD	0e016521aH
xdata	ENDS
;	COMDAT xdata
xdata	SEGMENT
$unwind$?fpclassify@@YAHN@Z DD 010a01H
	DD	0420aH
xdata	ENDS
;	COMDAT xdata
xdata	SEGMENT
$unwind$??1FastWriter@Json@@UEAA@XZ DD 020601H
	DD	030023206H
xdata	ENDS
;	COMDAT xdata
xdata	SEGMENT
$unwind$??_GFastWriter@Json@@UEAAPEAXI@Z DD 040a01H
	DD	06340aH
	DD	07006320aH
xdata	ENDS
;	COMDAT xdata
xdata	SEGMENT
$unwind$?valueToString@?A0xcff6a387@Json@@YA?AV?$basic_string@DU?$char_traits@D@std@@V?$allocator@D@2@@std@@N_NI@Z DD 061f19H
	DD	076810H
	DD	07004f20bH
	DD	030026003H
	DD	imagerel __GSHandlerCheck
	DD	060H
xdata	ENDS
;	COMDAT xdata
xdata	SEGMENT
$unwind$?valueToString@Json@@YA?AV?$basic_string@DU?$char_traits@D@std@@V?$allocator@D@2@@std@@_N@Z DD 020601H
	DD	030025206H
xdata	ENDS
;	COMDAT xdata
xdata	SEGMENT
$ip2state$?valueToQuotedString@Json@@YA?AV?$basic_string@DU?$char_traits@D@std@@V?$allocator@D@2@@std@@PEBD@Z DD imagerel ?valueToQuotedString@Json@@YA?AV?$basic_string@DU?$char_traits@D@std@@V?$allocator@D@2@@std@@PEBD@Z
	DD	0ffffffffH
	DD	imagerel ?valueToQuotedString@Json@@YA?AV?$basic_string@DU?$char_traits@D@std@@V?$allocator@D@2@@std@@PEBD@Z+205
	DD	00H
	DD	imagerel ?valueToQuotedString@Json@@YA?AV?$basic_string@DU?$char_traits@D@std@@V?$allocator@D@2@@std@@PEBD@Z+222
	DD	01H
	DD	imagerel ?valueToQuotedString@Json@@YA?AV?$basic_string@DU?$char_traits@D@std@@V?$allocator@D@2@@std@@PEBD@Z+241
	DD	00H
	DD	imagerel ?valueToQuotedString@Json@@YA?AV?$basic_string@DU?$char_traits@D@std@@V?$allocator@D@2@@std@@PEBD@Z+274
	DD	0ffffffffH
	DD	imagerel ?valueToQuotedString@Json@@YA?AV?$basic_string@DU?$char_traits@D@std@@V?$allocator@D@2@@std@@PEBD@Z+339
	DD	02H
	DD	imagerel ?valueToQuotedString@Json@@YA?AV?$basic_string@DU?$char_traits@D@std@@V?$allocator@D@2@@std@@PEBD@Z+523
	DD	00H
	DD	imagerel ?valueToQuotedString@Json@@YA?AV?$basic_string@DU?$char_traits@D@std@@V?$allocator@D@2@@std@@PEBD@Z+525
	DD	02H
	DD	imagerel ?valueToQuotedString@Json@@YA?AV?$basic_string@DU?$char_traits@D@std@@V?$allocator@D@2@@std@@PEBD@Z+737
	DD	03H
	DD	imagerel ?valueToQuotedString@Json@@YA?AV?$basic_string@DU?$char_traits@D@std@@V?$allocator@D@2@@std@@PEBD@Z+859
	DD	04H
	DD	imagerel ?valueToQuotedString@Json@@YA?AV?$basic_string@DU?$char_traits@D@std@@V?$allocator@D@2@@std@@PEBD@Z+879
	DD	03H
	DD	imagerel ?valueToQuotedString@Json@@YA?AV?$basic_string@DU?$char_traits@D@std@@V?$allocator@D@2@@std@@PEBD@Z+912
	DD	02H
	DD	imagerel ?valueToQuotedString@Json@@YA?AV?$basic_string@DU?$char_traits@D@std@@V?$allocator@D@2@@std@@PEBD@Z+1053
	DD	0ffffffffH
	DD	imagerel ?valueToQuotedString@Json@@YA?AV?$basic_string@DU?$char_traits@D@std@@V?$allocator@D@2@@std@@PEBD@Z+1096
	DD	00H
xdata	ENDS
;	COMDAT xdata
xdata	SEGMENT
$stateUnwindMap$?valueToQuotedString@Json@@YA?AV?$basic_string@DU?$char_traits@D@std@@V?$allocator@D@2@@std@@PEBD@Z DD 0ffffffffH
	DD	imagerel ?dtor$1@?0??valueToQuotedString@Json@@YA?AV?$basic_string@DU?$char_traits@D@std@@V?$allocator@D@2@@std@@PEBD@Z@4HA
	DD	00H
	DD	imagerel ?dtor$2@?0??valueToQuotedString@Json@@YA?AV?$basic_string@DU?$char_traits@D@std@@V?$allocator@D@2@@std@@PEBD@Z@4HA
	DD	0ffffffffH
	DD	imagerel ?dtor$3@?0??valueToQuotedString@Json@@YA?AV?$basic_string@DU?$char_traits@D@std@@V?$allocator@D@2@@std@@PEBD@Z@4HA
	DD	02H
	DD	imagerel ?dtor$4@?0??valueToQuotedString@Json@@YA?AV?$basic_string@DU?$char_traits@D@std@@V?$allocator@D@2@@std@@PEBD@Z@4HA
	DD	03H
	DD	imagerel ?dtor$5@?0??valueToQuotedString@Json@@YA?AV?$basic_string@DU?$char_traits@D@std@@V?$allocator@D@2@@std@@PEBD@Z@4HA
xdata	ENDS
;	COMDAT CONST
CONST	SEGMENT
$cppxdata$?valueToQuotedString@Json@@YA?AV?$basic_string@DU?$char_traits@D@std@@V?$allocator@D@2@@std@@PEBD@Z DD 019930522H
	DD	05H
	DD	imagerel $stateUnwindMap$?valueToQuotedString@Json@@YA?AV?$basic_string@DU?$char_traits@D@std@@V?$allocator@D@2@@std@@PEBD@Z
	DD	00H
	DD	00H
	DD	0eH
	DD	imagerel $ip2state$?valueToQuotedString@Json@@YA?AV?$basic_string@DU?$char_traits@D@std@@V?$allocator@D@2@@std@@PEBD@Z
	DD	028H
	DD	00H
	DD	01H
CONST	ENDS
;	COMDAT xdata
xdata	SEGMENT
$unwind$?valueToQuotedString@Json@@YA?AV?$basic_string@DU?$char_traits@D@std@@V?$allocator@D@2@@std@@PEBD@Z DD 093919H
	DD	03a3428H
	DD	0320117H
	DD	0e006f008H
	DD	060037004H
	DD	05002H
	DD	imagerel __GSHandlerCheck_EH
	DD	imagerel $cppxdata$?valueToQuotedString@Json@@YA?AV?$basic_string@DU?$char_traits@D@std@@V?$allocator@D@2@@std@@PEBD@Z
	DD	0182H
xdata	ENDS
;	COMDAT xdata
xdata	SEGMENT
$ip2state$?valueToQuotedStringN@Json@@YA?AV?$basic_string@DU?$char_traits@D@std@@V?$allocator@D@2@@std@@PEBDI@Z DD imagerel ?valueToQuotedStringN@Json@@YA?AV?$basic_string@DU?$char_traits@D@std@@V?$allocator@D@2@@std@@PEBDI@Z
	DD	0ffffffffH
	DD	imagerel ?valueToQuotedStringN@Json@@YA?AV?$basic_string@DU?$char_traits@D@std@@V?$allocator@D@2@@std@@PEBDI@Z+236
	DD	02H
	DD	imagerel ?valueToQuotedStringN@Json@@YA?AV?$basic_string@DU?$char_traits@D@std@@V?$allocator@D@2@@std@@PEBDI@Z+423
	DD	00H
	DD	imagerel ?valueToQuotedStringN@Json@@YA?AV?$basic_string@DU?$char_traits@D@std@@V?$allocator@D@2@@std@@PEBDI@Z+425
	DD	02H
	DD	imagerel ?valueToQuotedStringN@Json@@YA?AV?$basic_string@DU?$char_traits@D@std@@V?$allocator@D@2@@std@@PEBDI@Z+657
	DD	03H
	DD	imagerel ?valueToQuotedStringN@Json@@YA?AV?$basic_string@DU?$char_traits@D@std@@V?$allocator@D@2@@std@@PEBDI@Z+779
	DD	04H
	DD	imagerel ?valueToQuotedStringN@Json@@YA?AV?$basic_string@DU?$char_traits@D@std@@V?$allocator@D@2@@std@@PEBDI@Z+799
	DD	03H
	DD	imagerel ?valueToQuotedStringN@Json@@YA?AV?$basic_string@DU?$char_traits@D@std@@V?$allocator@D@2@@std@@PEBDI@Z+832
	DD	02H
	DD	imagerel ?valueToQuotedStringN@Json@@YA?AV?$basic_string@DU?$char_traits@D@std@@V?$allocator@D@2@@std@@PEBDI@Z+957
	DD	0ffffffffH
	DD	imagerel ?valueToQuotedStringN@Json@@YA?AV?$basic_string@DU?$char_traits@D@std@@V?$allocator@D@2@@std@@PEBDI@Z+998
	DD	00H
	DD	imagerel ?valueToQuotedStringN@Json@@YA?AV?$basic_string@DU?$char_traits@D@std@@V?$allocator@D@2@@std@@PEBDI@Z+1015
	DD	01H
	DD	imagerel ?valueToQuotedStringN@Json@@YA?AV?$basic_string@DU?$char_traits@D@std@@V?$allocator@D@2@@std@@PEBDI@Z+1034
	DD	00H
	DD	imagerel ?valueToQuotedStringN@Json@@YA?AV?$basic_string@DU?$char_traits@D@std@@V?$allocator@D@2@@std@@PEBDI@Z+1067
	DD	0ffffffffH
	DD	imagerel ?valueToQuotedStringN@Json@@YA?AV?$basic_string@DU?$char_traits@D@std@@V?$allocator@D@2@@std@@PEBDI@Z+1120
	DD	00H
xdata	ENDS
;	COMDAT xdata
xdata	SEGMENT
$stateUnwindMap$?valueToQuotedStringN@Json@@YA?AV?$basic_string@DU?$char_traits@D@std@@V?$allocator@D@2@@std@@PEBDI@Z DD 0ffffffffH
	DD	imagerel ?dtor$1@?0??valueToQuotedStringN@Json@@YA?AV?$basic_string@DU?$char_traits@D@std@@V?$allocator@D@2@@std@@PEBDI@Z@4HA
	DD	00H
	DD	imagerel ?dtor$2@?0??valueToQuotedStringN@Json@@YA?AV?$basic_string@DU?$char_traits@D@std@@V?$allocator@D@2@@std@@PEBDI@Z@4HA
	DD	0ffffffffH
	DD	imagerel ?dtor$3@?0??valueToQuotedStringN@Json@@YA?AV?$basic_string@DU?$char_traits@D@std@@V?$allocator@D@2@@std@@PEBDI@Z@4HA
	DD	02H
	DD	imagerel ?dtor$4@?0??valueToQuotedStringN@Json@@YA?AV?$basic_string@DU?$char_traits@D@std@@V?$allocator@D@2@@std@@PEBDI@Z@4HA
	DD	03H
	DD	imagerel ?dtor$5@?0??valueToQuotedStringN@Json@@YA?AV?$basic_string@DU?$char_traits@D@std@@V?$allocator@D@2@@std@@PEBDI@Z@4HA
xdata	ENDS
;	COMDAT CONST
CONST	SEGMENT
$cppxdata$?valueToQuotedStringN@Json@@YA?AV?$basic_string@DU?$char_traits@D@std@@V?$allocator@D@2@@std@@PEBDI@Z DD 019930522H
	DD	05H
	DD	imagerel $stateUnwindMap$?valueToQuotedStringN@Json@@YA?AV?$basic_string@DU?$char_traits@D@std@@V?$allocator@D@2@@std@@PEBDI@Z
	DD	00H
	DD	00H
	DD	0eH
	DD	imagerel $ip2state$?valueToQuotedStringN@Json@@YA?AV?$basic_string@DU?$char_traits@D@std@@V?$allocator@D@2@@std@@PEBDI@Z
	DD	028H
	DD	00H
	DD	01H
CONST	ENDS
;	COMDAT xdata
xdata	SEGMENT
$unwind$?valueToQuotedStringN@Json@@YA?AV?$basic_string@DU?$char_traits@D@std@@V?$allocator@D@2@@std@@PEBDI@Z DD 093419H
	DD	032011aH
	DD	0e009f00bH
	DD	07005c007H
	DD	030036004H
	DD	05002H
	DD	imagerel __GSHandlerCheck_EH
	DD	imagerel $cppxdata$?valueToQuotedStringN@Json@@YA?AV?$basic_string@DU?$char_traits@D@std@@V?$allocator@D@2@@std@@PEBDI@Z
	DD	0182H
xdata	ENDS
;	COMDAT xdata
xdata	SEGMENT
$unwind$??_GWriter@Json@@UEAAPEAXI@Z DD 020601H
	DD	030023206H
xdata	ENDS
;	COMDAT xdata
xdata	SEGMENT
$unwind$?write@FastWriter@Json@@UEAA?AV?$basic_string@DU?$char_traits@D@std@@V?$allocator@D@2@@std@@AEBVValue@2@@Z DD 060f01H
	DD	09640fH
	DD	08340fH
	DD	0700b520fH
xdata	ENDS
;	COMDAT xdata
xdata	SEGMENT
$ip2state$?writeValue@FastWriter@Json@@AEAAXAEBVValue@2@@Z DD imagerel ?writeValue@FastWriter@Json@@AEAAXAEBVValue@2@@Z
	DD	0ffffffffH
	DD	imagerel ?writeValue@FastWriter@Json@@AEAAXAEBVValue@2@@Z+93
	DD	00H
	DD	imagerel ?writeValue@FastWriter@Json@@AEAAXAEBVValue@2@@Z+95
	DD	0ffffffffH
	DD	imagerel ?writeValue@FastWriter@Json@@AEAAXAEBVValue@2@@Z+153
	DD	00H
	DD	imagerel ?writeValue@FastWriter@Json@@AEAAXAEBVValue@2@@Z+173
	DD	0ffffffffH
	DD	imagerel ?writeValue@FastWriter@Json@@AEAAXAEBVValue@2@@Z+214
	DD	01H
	DD	imagerel ?writeValue@FastWriter@Json@@AEAAXAEBVValue@2@@Z+234
	DD	0ffffffffH
	DD	imagerel ?writeValue@FastWriter@Json@@AEAAXAEBVValue@2@@Z+276
	DD	02H
	DD	imagerel ?writeValue@FastWriter@Json@@AEAAXAEBVValue@2@@Z+296
	DD	0ffffffffH
	DD	imagerel ?writeValue@FastWriter@Json@@AEAAXAEBVValue@2@@Z+388
	DD	03H
	DD	imagerel ?writeValue@FastWriter@Json@@AEAAXAEBVValue@2@@Z+408
	DD	0ffffffffH
	DD	imagerel ?writeValue@FastWriter@Json@@AEAAXAEBVValue@2@@Z+449
	DD	04H
	DD	imagerel ?writeValue@FastWriter@Json@@AEAAXAEBVValue@2@@Z+469
	DD	0ffffffffH
	DD	imagerel ?writeValue@FastWriter@Json@@AEAAXAEBVValue@2@@Z+631
	DD	05H
	DD	imagerel ?writeValue@FastWriter@Json@@AEAAXAEBVValue@2@@Z+729
	DD	06H
	DD	imagerel ?writeValue@FastWriter@Json@@AEAAXAEBVValue@2@@Z+749
	DD	05H
	DD	imagerel ?writeValue@FastWriter@Json@@AEAAXAEBVValue@2@@Z+914
	DD	0ffffffffH
	DD	imagerel ?writeValue@FastWriter@Json@@AEAAXAEBVValue@2@@Z+1032
	DD	00H
xdata	ENDS
;	COMDAT xdata
xdata	SEGMENT
$stateUnwindMap$?writeValue@FastWriter@Json@@AEAAXAEBVValue@2@@Z DD 0ffffffffH
	DD	imagerel ?dtor$0@?0??writeValue@FastWriter@Json@@AEAAXAEBVValue@2@@Z@4HA
	DD	0ffffffffH
	DD	imagerel ?dtor$1@?0??writeValue@FastWriter@Json@@AEAAXAEBVValue@2@@Z@4HA
	DD	0ffffffffH
	DD	imagerel ?dtor$2@?0??writeValue@FastWriter@Json@@AEAAXAEBVValue@2@@Z@4HA
	DD	0ffffffffH
	DD	imagerel ?dtor$3@?0??writeValue@FastWriter@Json@@AEAAXAEBVValue@2@@Z@4HA
	DD	0ffffffffH
	DD	imagerel ?dtor$4@?0??writeValue@FastWriter@Json@@AEAAXAEBVValue@2@@Z@4HA
	DD	0ffffffffH
	DD	imagerel ?dtor$5@?0??writeValue@FastWriter@Json@@AEAAXAEBVValue@2@@Z@4HA
	DD	05H
	DD	imagerel ?dtor$6@?0??writeValue@FastWriter@Json@@AEAAXAEBVValue@2@@Z@4HA
xdata	ENDS
;	COMDAT CONST
CONST	SEGMENT
$cppxdata$?writeValue@FastWriter@Json@@AEAAXAEBVValue@2@@Z DD 019930522H
	DD	07H
	DD	imagerel $stateUnwindMap$?writeValue@FastWriter@Json@@AEAAXAEBVValue@2@@Z
	DD	00H
	DD	00H
	DD	012H
	DD	imagerel $ip2state$?writeValue@FastWriter@Json@@AEAAXAEBVValue@2@@Z
	DD	050H
	DD	00H
	DD	01H
CONST	ENDS
;	COMDAT xdata
xdata	SEGMENT
$unwind$?writeValue@FastWriter@Json@@AEAAXAEBVValue@2@@Z DD 072f19H
	DD	02a3421H
	DD	0240110H
	DD	060037004H
	DD	05002H
	DD	imagerel __GSHandlerCheck_EH
	DD	imagerel $cppxdata$?writeValue@FastWriter@Json@@AEAAXAEBVValue@2@@Z
	DD	011aH
xdata	ENDS
;	COMDAT xdata
xdata	SEGMENT
$ip2state$?writeValue@StyledWriter@Json@@AEAAXAEBVValue@2@@Z DD imagerel ?writeValue@StyledWriter@Json@@AEAAXAEBVValue@2@@Z
	DD	0ffffffffH
	DD	imagerel ?writeValue@StyledWriter@Json@@AEAAXAEBVValue@2@@Z+99
	DD	00H
	DD	imagerel ?writeValue@StyledWriter@Json@@AEAAXAEBVValue@2@@Z+101
	DD	0ffffffffH
	DD	imagerel ?writeValue@StyledWriter@Json@@AEAAXAEBVValue@2@@Z+140
	DD	00H
	DD	imagerel ?writeValue@StyledWriter@Json@@AEAAXAEBVValue@2@@Z+178
	DD	0ffffffffH
	DD	imagerel ?writeValue@StyledWriter@Json@@AEAAXAEBVValue@2@@Z+219
	DD	01H
	DD	imagerel ?writeValue@StyledWriter@Json@@AEAAXAEBVValue@2@@Z+256
	DD	0ffffffffH
	DD	imagerel ?writeValue@StyledWriter@Json@@AEAAXAEBVValue@2@@Z+297
	DD	02H
	DD	imagerel ?writeValue@StyledWriter@Json@@AEAAXAEBVValue@2@@Z+334
	DD	0ffffffffH
	DD	imagerel ?writeValue@StyledWriter@Json@@AEAAXAEBVValue@2@@Z+378
	DD	03H
	DD	imagerel ?writeValue@StyledWriter@Json@@AEAAXAEBVValue@2@@Z+415
	DD	0ffffffffH
	DD	imagerel ?writeValue@StyledWriter@Json@@AEAAXAEBVValue@2@@Z+500
	DD	04H
	DD	imagerel ?writeValue@StyledWriter@Json@@AEAAXAEBVValue@2@@Z+537
	DD	0ffffffffH
	DD	imagerel ?writeValue@StyledWriter@Json@@AEAAXAEBVValue@2@@Z+595
	DD	05H
	DD	imagerel ?writeValue@StyledWriter@Json@@AEAAXAEBVValue@2@@Z+633
	DD	0ffffffffH
	DD	imagerel ?writeValue@StyledWriter@Json@@AEAAXAEBVValue@2@@Z+677
	DD	06H
	DD	imagerel ?writeValue@StyledWriter@Json@@AEAAXAEBVValue@2@@Z+714
	DD	0ffffffffH
	DD	imagerel ?writeValue@StyledWriter@Json@@AEAAXAEBVValue@2@@Z+770
	DD	07H
	DD	imagerel ?writeValue@StyledWriter@Json@@AEAAXAEBVValue@2@@Z+825
	DD	08H
	DD	imagerel ?writeValue@StyledWriter@Json@@AEAAXAEBVValue@2@@Z+864
	DD	07H
	DD	imagerel ?writeValue@StyledWriter@Json@@AEAAXAEBVValue@2@@Z+946
	DD	09H
	DD	imagerel ?writeValue@StyledWriter@Json@@AEAAXAEBVValue@2@@Z+959
	DD	07H
	DD	imagerel ?writeValue@StyledWriter@Json@@AEAAXAEBVValue@2@@Z+1062
	DD	0aH
	DD	imagerel ?writeValue@StyledWriter@Json@@AEAAXAEBVValue@2@@Z+1074
	DD	07H
	DD	imagerel ?writeValue@StyledWriter@Json@@AEAAXAEBVValue@2@@Z+1250
	DD	0bH
	DD	imagerel ?writeValue@StyledWriter@Json@@AEAAXAEBVValue@2@@Z+1264
	DD	07H
	DD	imagerel ?writeValue@StyledWriter@Json@@AEAAXAEBVValue@2@@Z+1299
	DD	0ffffffffH
	DD	imagerel ?writeValue@StyledWriter@Json@@AEAAXAEBVValue@2@@Z+1416
	DD	00H
xdata	ENDS
;	COMDAT xdata
xdata	SEGMENT
$stateUnwindMap$?writeValue@StyledWriter@Json@@AEAAXAEBVValue@2@@Z DD 0ffffffffH
	DD	imagerel ?dtor$0@?0??writeValue@StyledWriter@Json@@AEAAXAEBVValue@2@@Z@4HA
	DD	0ffffffffH
	DD	imagerel ?dtor$1@?0??writeValue@StyledWriter@Json@@AEAAXAEBVValue@2@@Z@4HA
	DD	0ffffffffH
	DD	imagerel ?dtor$2@?0??writeValue@StyledWriter@Json@@AEAAXAEBVValue@2@@Z@4HA
	DD	0ffffffffH
	DD	imagerel ?dtor$3@?0??writeValue@StyledWriter@Json@@AEAAXAEBVValue@2@@Z@4HA
	DD	0ffffffffH
	DD	imagerel ?dtor$4@?0??writeValue@StyledWriter@Json@@AEAAXAEBVValue@2@@Z@4HA
	DD	0ffffffffH
	DD	imagerel ?dtor$5@?0??writeValue@StyledWriter@Json@@AEAAXAEBVValue@2@@Z@4HA
	DD	0ffffffffH
	DD	imagerel ?dtor$6@?0??writeValue@StyledWriter@Json@@AEAAXAEBVValue@2@@Z@4HA
	DD	0ffffffffH
	DD	imagerel ?dtor$7@?0??writeValue@StyledWriter@Json@@AEAAXAEBVValue@2@@Z@4HA
	DD	07H
	DD	imagerel ?dtor$8@?0??writeValue@StyledWriter@Json@@AEAAXAEBVValue@2@@Z@4HA
	DD	07H
	DD	imagerel ?dtor$9@?0??writeValue@StyledWriter@Json@@AEAAXAEBVValue@2@@Z@4HA
	DD	07H
	DD	imagerel ?dtor$10@?0??writeValue@StyledWriter@Json@@AEAAXAEBVValue@2@@Z@4HA
	DD	07H
	DD	imagerel ?dtor$11@?0??writeValue@StyledWriter@Json@@AEAAXAEBVValue@2@@Z@4HA
xdata	ENDS
;	COMDAT CONST
CONST	SEGMENT
$cppxdata$?writeValue@StyledWriter@Json@@AEAAXAEBVValue@2@@Z DD 019930522H
	DD	0cH
	DD	imagerel $stateUnwindMap$?writeValue@StyledWriter@Json@@AEAAXAEBVValue@2@@Z
	DD	00H
	DD	00H
	DD	01cH
	DD	imagerel $ip2state$?writeValue@StyledWriter@Json@@AEAAXAEBVValue@2@@Z
	DD	050H
	DD	00H
	DD	01H
CONST	ENDS
;	COMDAT xdata
xdata	SEGMENT
$unwind$?writeValue@StyledWriter@Json@@AEAAXAEBVValue@2@@Z DD 073519H
	DD	03e3424H
	DD	0380113H
	DD	060037004H
	DD	05002H
	DD	imagerel __GSHandlerCheck_EH
	DD	imagerel $cppxdata$?writeValue@StyledWriter@Json@@AEAAXAEBVValue@2@@Z
	DD	01baH
xdata	ENDS
;	COMDAT xdata
xdata	SEGMENT
$ip2state$?writeArrayValue@StyledWriter@Json@@AEAAXAEBVValue@2@@Z DD imagerel ?writeArrayValue@StyledWriter@Json@@AEAAXAEBVValue@2@@Z
	DD	0ffffffffH
	DD	imagerel ?writeArrayValue@StyledWriter@Json@@AEAAXAEBVValue@2@@Z+147
	DD	01H
	DD	imagerel ?writeArrayValue@StyledWriter@Json@@AEAAXAEBVValue@2@@Z+248
	DD	0ffffffffH
	DD	imagerel ?writeArrayValue@StyledWriter@Json@@AEAAXAEBVValue@2@@Z+575
	DD	02H
	DD	imagerel ?writeArrayValue@StyledWriter@Json@@AEAAXAEBVValue@2@@Z+668
	DD	0ffffffffH
	DD	imagerel ?writeArrayValue@StyledWriter@Json@@AEAAXAEBVValue@2@@Z+832
	DD	00H
	DD	imagerel ?writeArrayValue@StyledWriter@Json@@AEAAXAEBVValue@2@@Z+871
	DD	0ffffffffH
xdata	ENDS
;	COMDAT xdata
xdata	SEGMENT
$stateUnwindMap$?writeArrayValue@StyledWriter@Json@@AEAAXAEBVValue@2@@Z DD 0ffffffffH
	DD	imagerel ?dtor$0@?0??writeArrayValue@StyledWriter@Json@@AEAAXAEBVValue@2@@Z@4HA
	DD	0ffffffffH
	DD	imagerel ?dtor$1@?0??writeArrayValue@StyledWriter@Json@@AEAAXAEBVValue@2@@Z@4HA
	DD	0ffffffffH
	DD	imagerel ?dtor$2@?0??writeArrayValue@StyledWriter@Json@@AEAAXAEBVValue@2@@Z@4HA
xdata	ENDS
;	COMDAT CONST
CONST	SEGMENT
$cppxdata$?writeArrayValue@StyledWriter@Json@@AEAAXAEBVValue@2@@Z DD 019930522H
	DD	03H
	DD	imagerel $stateUnwindMap$?writeArrayValue@StyledWriter@Json@@AEAAXAEBVValue@2@@Z
	DD	00H
	DD	00H
	DD	07H
	DD	imagerel $ip2state$?writeArrayValue@StyledWriter@Json@@AEAAXAEBVValue@2@@Z
	DD	020H
	DD	00H
	DD	01H
CONST	ENDS
;	COMDAT xdata
xdata	SEGMENT
$unwind$?writeArrayValue@StyledWriter@Json@@AEAAXAEBVValue@2@@Z DD 0a3019H
	DD	0143421H
	DD	0f00c9210H
	DD	0d008e00aH
	DD	07004c006H
	DD	050026003H
	DD	imagerel __GSHandlerCheck_EH
	DD	imagerel $cppxdata$?writeArrayValue@StyledWriter@Json@@AEAAXAEBVValue@2@@Z
	DD	04aH
xdata	ENDS
;	COMDAT xdata
xdata	SEGMENT
$chain$1$?isMultineArray@StyledWriter@Json@@AEAA_NAEBVValue@2@@Z DD 021H
	DD	imagerel $LN99
	DD	imagerel $LN99+222
	DD	imagerel $unwind$?isMultineArray@StyledWriter@Json@@AEAA_NAEBVValue@2@@Z
xdata	ENDS
;	COMDAT xdata
xdata	SEGMENT
$chain$0$?isMultineArray@StyledWriter@Json@@AEAA_NAEBVValue@2@@Z DD 020521H
	DD	0af405H
	DD	imagerel $LN99
	DD	imagerel $LN99+222
	DD	imagerel $unwind$?isMultineArray@StyledWriter@Json@@AEAA_NAEBVValue@2@@Z
xdata	ENDS
;	COMDAT xdata
xdata	SEGMENT
$unwind$?isMultineArray@StyledWriter@Json@@AEAA_NAEBVValue@2@@Z DD 0a1601H
	DD	0c5416H
	DD	0b3416H
	DD	0e0123216H
	DD	0c00ed010H
	DD	0600b700cH
xdata	ENDS
;	COMDAT xdata
xdata	SEGMENT
$unwind$?writeIndent@StyledWriter@Json@@AEAAXXZ DD 020601H
	DD	030023206H
xdata	ENDS
;	COMDAT xdata
xdata	SEGMENT
$unwind$?writeWithIndent@StyledWriter@Json@@AEAAXAEBV?$basic_string@DU?$char_traits@D@std@@V?$allocator@D@2@@std@@@Z DD 060f01H
	DD	07640fH
	DD	06340fH
	DD	0700b320fH
xdata	ENDS
;	COMDAT xdata
xdata	SEGMENT
$ip2state$?indent@StyledWriter@Json@@AEAAXXZ DD imagerel ?indent@StyledWriter@Json@@AEAAXXZ
	DD	0ffffffffH
	DD	imagerel ?indent@StyledWriter@Json@@AEAAXXZ+73
	DD	00H
	DD	imagerel ?indent@StyledWriter@Json@@AEAAXXZ+95
	DD	0ffffffffH
xdata	ENDS
;	COMDAT xdata
xdata	SEGMENT
$stateUnwindMap$?indent@StyledWriter@Json@@AEAAXXZ DD 0ffffffffH
	DD	imagerel ?dtor$0@?0??indent@StyledWriter@Json@@AEAAXXZ@4HA
xdata	ENDS
;	COMDAT CONST
CONST	SEGMENT
$cppxdata$?indent@StyledWriter@Json@@AEAAXXZ DD 019930522H
	DD	01H
	DD	imagerel $stateUnwindMap$?indent@StyledWriter@Json@@AEAAXXZ
	DD	00H
	DD	00H
	DD	03H
	DD	imagerel $ip2state$?indent@StyledWriter@Json@@AEAAXXZ
	DD	020H
	DD	00H
	DD	01H
CONST	ENDS
;	COMDAT xdata
xdata	SEGMENT
$unwind$?indent@StyledWriter@Json@@AEAAXXZ DD 021e19H
	DD	030029206H
	DD	imagerel __GSHandlerCheck_EH
	DD	imagerel $cppxdata$?indent@StyledWriter@Json@@AEAAXXZ
	DD	04aH
xdata	ENDS
;	COMDAT xdata
xdata	SEGMENT
$ip2state$?writeCommentBeforeValue@StyledWriter@Json@@AEAAXAEBVValue@2@@Z DD imagerel ?writeCommentBeforeValue@StyledWriter@Json@@AEAAXAEBVValue@2@@Z
	DD	0ffffffffH
	DD	imagerel ?writeCommentBeforeValue@StyledWriter@Json@@AEAAXAEBVValue@2@@Z+184
	DD	00H
	DD	imagerel ?writeCommentBeforeValue@StyledWriter@Json@@AEAAXAEBVValue@2@@Z+401
	DD	0ffffffffH
xdata	ENDS
;	COMDAT xdata
xdata	SEGMENT
$stateUnwindMap$?writeCommentBeforeValue@StyledWriter@Json@@AEAAXAEBVValue@2@@Z DD 0ffffffffH
	DD	imagerel ?dtor$0@?0??writeCommentBeforeValue@StyledWriter@Json@@AEAAXAEBVValue@2@@Z@4HA
xdata	ENDS
;	COMDAT CONST
CONST	SEGMENT
$cppxdata$?writeCommentBeforeValue@StyledWriter@Json@@AEAAXAEBVValue@2@@Z DD 019930522H
	DD	01H
	DD	imagerel $stateUnwindMap$?writeCommentBeforeValue@StyledWriter@Json@@AEAAXAEBVValue@2@@Z
	DD	00H
	DD	00H
	DD	03H
	DD	imagerel $ip2state$?writeCommentBeforeValue@StyledWriter@Json@@AEAAXAEBVValue@2@@Z
	DD	020H
	DD	00H
	DD	01H
CONST	ENDS
;	COMDAT xdata
xdata	SEGMENT
$unwind$?writeCommentBeforeValue@StyledWriter@Json@@AEAAXAEBVValue@2@@Z DD 062819H
	DD	0f6419H
	DD	0e3414H
	DD	070029206H
	DD	imagerel __GSHandlerCheck_EH
	DD	imagerel $cppxdata$?writeCommentBeforeValue@StyledWriter@Json@@AEAAXAEBVValue@2@@Z
	DD	04aH
xdata	ENDS
;	COMDAT xdata
xdata	SEGMENT
$ip2state$?writeCommentAfterValueOnSameLine@StyledWriter@Json@@AEAAXAEBVValue@2@@Z DD imagerel ?writeCommentAfterValueOnSameLine@StyledWriter@Json@@AEAAXAEBVValue@2@@Z
	DD	0ffffffffH
	DD	imagerel ?writeCommentAfterValueOnSameLine@StyledWriter@Json@@AEAAXAEBVValue@2@@Z+84
	DD	00H
	DD	imagerel ?writeCommentAfterValueOnSameLine@StyledWriter@Json@@AEAAXAEBVValue@2@@Z+105
	DD	01H
	DD	imagerel ?writeCommentAfterValueOnSameLine@StyledWriter@Json@@AEAAXAEBVValue@2@@Z+125
	DD	00H
	DD	imagerel ?writeCommentAfterValueOnSameLine@StyledWriter@Json@@AEAAXAEBVValue@2@@Z+167
	DD	0ffffffffH
	DD	imagerel ?writeCommentAfterValueOnSameLine@StyledWriter@Json@@AEAAXAEBVValue@2@@Z+247
	DD	02H
	DD	imagerel ?writeCommentAfterValueOnSameLine@StyledWriter@Json@@AEAAXAEBVValue@2@@Z+266
	DD	0ffffffffH
xdata	ENDS
;	COMDAT xdata
xdata	SEGMENT
$stateUnwindMap$?writeCommentAfterValueOnSameLine@StyledWriter@Json@@AEAAXAEBVValue@2@@Z DD 0ffffffffH
	DD	imagerel ?dtor$0@?0??writeCommentAfterValueOnSameLine@StyledWriter@Json@@AEAAXAEBVValue@2@@Z@4HA
	DD	00H
	DD	imagerel ?dtor$1@?0??writeCommentAfterValueOnSameLine@StyledWriter@Json@@AEAAXAEBVValue@2@@Z@4HA
	DD	0ffffffffH
	DD	imagerel ?dtor$2@?0??writeCommentAfterValueOnSameLine@StyledWriter@Json@@AEAAXAEBVValue@2@@Z@4HA
xdata	ENDS
;	COMDAT CONST
CONST	SEGMENT
$cppxdata$?writeCommentAfterValueOnSameLine@StyledWriter@Json@@AEAAXAEBVValue@2@@Z DD 019930522H
	DD	03H
	DD	imagerel $stateUnwindMap$?writeCommentAfterValueOnSameLine@StyledWriter@Json@@AEAAXAEBVValue@2@@Z
	DD	00H
	DD	00H
	DD	07H
	DD	imagerel $ip2state$?writeCommentAfterValueOnSameLine@StyledWriter@Json@@AEAAXAEBVValue@2@@Z
	DD	020H
	DD	00H
	DD	01H
CONST	ENDS
;	COMDAT xdata
xdata	SEGMENT
$unwind$?writeCommentAfterValueOnSameLine@StyledWriter@Json@@AEAAXAEBVValue@2@@Z DD 042619H
	DD	0123417H
	DD	07002d206H
	DD	imagerel __GSHandlerCheck_EH
	DD	imagerel $cppxdata$?writeCommentAfterValueOnSameLine@StyledWriter@Json@@AEAAXAEBVValue@2@@Z
	DD	06aH
xdata	ENDS
;	COMDAT xdata
xdata	SEGMENT
$ip2state$??0BuiltStyledStreamWriter@Json@@QEAA@AEBV?$basic_string@DU?$char_traits@D@std@@V?$allocator@D@2@@std@@W4Enum@CommentStyle@1@000_NI@Z DD imagerel ??0BuiltStyledStreamWriter@Json@@QEAA@AEBV?$basic_string@DU?$char_traits@D@std@@V?$allocator@D@2@@std@@W4Enum@CommentStyle@1@000_NI@Z
	DD	0ffffffffH
	DD	imagerel ??0BuiltStyledStreamWriter@Json@@QEAA@AEBV?$basic_string@DU?$char_traits@D@std@@V?$allocator@D@2@@std@@W4Enum@CommentStyle@1@000_NI@Z+49
	DD	00H
	DD	imagerel ??0BuiltStyledStreamWriter@Json@@QEAA@AEBV?$basic_string@DU?$char_traits@D@std@@V?$allocator@D@2@@std@@W4Enum@CommentStyle@1@000_NI@Z+71
	DD	01H
	DD	imagerel ??0BuiltStyledStreamWriter@Json@@QEAA@AEBV?$basic_string@DU?$char_traits@D@std@@V?$allocator@D@2@@std@@W4Enum@CommentStyle@1@000_NI@Z+87
	DD	02H
	DD	imagerel ??0BuiltStyledStreamWriter@Json@@QEAA@AEBV?$basic_string@DU?$char_traits@D@std@@V?$allocator@D@2@@std@@W4Enum@CommentStyle@1@000_NI@Z+126
	DD	03H
	DD	imagerel ??0BuiltStyledStreamWriter@Json@@QEAA@AEBV?$basic_string@DU?$char_traits@D@std@@V?$allocator@D@2@@std@@W4Enum@CommentStyle@1@000_NI@Z+164
	DD	04H
	DD	imagerel ??0BuiltStyledStreamWriter@Json@@QEAA@AEBV?$basic_string@DU?$char_traits@D@std@@V?$allocator@D@2@@std@@W4Enum@CommentStyle@1@000_NI@Z+204
	DD	05H
	DD	imagerel ??0BuiltStyledStreamWriter@Json@@QEAA@AEBV?$basic_string@DU?$char_traits@D@std@@V?$allocator@D@2@@std@@W4Enum@CommentStyle@1@000_NI@Z+276
	DD	0ffffffffH
xdata	ENDS
;	COMDAT xdata
xdata	SEGMENT
$stateUnwindMap$??0BuiltStyledStreamWriter@Json@@QEAA@AEBV?$basic_string@DU?$char_traits@D@std@@V?$allocator@D@2@@std@@W4Enum@CommentStyle@1@000_NI@Z DD 0ffffffffH
	DD	imagerel ?dtor$0@?0???0BuiltStyledStreamWriter@Json@@QEAA@AEBV?$basic_string@DU?$char_traits@D@std@@V?$allocator@D@2@@std@@W4Enum@CommentStyle@1@000_NI@Z@4HA
	DD	00H
	DD	imagerel ?dtor$1@?0???0BuiltStyledStreamWriter@Json@@QEAA@AEBV?$basic_string@DU?$char_traits@D@std@@V?$allocator@D@2@@std@@W4Enum@CommentStyle@1@000_NI@Z@4HA
	DD	01H
	DD	imagerel ?dtor$2@?0???0BuiltStyledStreamWriter@Json@@QEAA@AEBV?$basic_string@DU?$char_traits@D@std@@V?$allocator@D@2@@std@@W4Enum@CommentStyle@1@000_NI@Z@4HA
	DD	02H
	DD	imagerel ?dtor$3@?0???0BuiltStyledStreamWriter@Json@@QEAA@AEBV?$basic_string@DU?$char_traits@D@std@@V?$allocator@D@2@@std@@W4Enum@CommentStyle@1@000_NI@Z@4HA
	DD	03H
	DD	imagerel ?dtor$4@?0???0BuiltStyledStreamWriter@Json@@QEAA@AEBV?$basic_string@DU?$char_traits@D@std@@V?$allocator@D@2@@std@@W4Enum@CommentStyle@1@000_NI@Z@4HA
	DD	04H
	DD	imagerel ?dtor$5@?0???0BuiltStyledStreamWriter@Json@@QEAA@AEBV?$basic_string@DU?$char_traits@D@std@@V?$allocator@D@2@@std@@W4Enum@CommentStyle@1@000_NI@Z@4HA
xdata	ENDS
;	COMDAT CONST
CONST	SEGMENT
$cppxdata$??0BuiltStyledStreamWriter@Json@@QEAA@AEBV?$basic_string@DU?$char_traits@D@std@@V?$allocator@D@2@@std@@W4Enum@CommentStyle@1@000_NI@Z DD 019930522H
	DD	06H
	DD	imagerel $stateUnwindMap$??0BuiltStyledStreamWriter@Json@@QEAA@AEBV?$basic_string@DU?$char_traits@D@std@@V?$allocator@D@2@@std@@W4Enum@CommentStyle@1@000_NI@Z
	DD	00H
	DD	00H
	DD	08H
	DD	imagerel $ip2state$??0BuiltStyledStreamWriter@Json@@QEAA@AEBV?$basic_string@DU?$char_traits@D@std@@V?$allocator@D@2@@std@@W4Enum@CommentStyle@1@000_NI@Z
	DD	020H
	DD	00H
	DD	01H
CONST	ENDS
;	COMDAT xdata
xdata	SEGMENT
$unwind$??0BuiltStyledStreamWriter@Json@@QEAA@AEBV?$basic_string@DU?$char_traits@D@std@@V?$allocator@D@2@@std@@W4Enum@CommentStyle@1@000_NI@Z DD 082211H
	DD	0b6422H
	DD	0a541dH
	DD	093418H
	DD	07006520aH
	DD	imagerel __CxxFrameHandler3
	DD	imagerel $cppxdata$??0BuiltStyledStreamWriter@Json@@QEAA@AEBV?$basic_string@DU?$char_traits@D@std@@V?$allocator@D@2@@std@@W4Enum@CommentStyle@1@000_NI@Z
xdata	ENDS
;	COMDAT xdata
xdata	SEGMENT
$unwind$??_GBuiltStyledStreamWriter@Json@@UEAAPEAXI@Z DD 040a01H
	DD	06340aH
	DD	07006320aH
xdata	ENDS
;	COMDAT xdata
xdata	SEGMENT
$unwind$??1BuiltStyledStreamWriter@Json@@UEAA@XZ DD 040a01H
	DD	06340aH
	DD	07006320aH
xdata	ENDS
;	COMDAT xdata
xdata	SEGMENT
$unwind$?write@BuiltStyledStreamWriter@Json@@UEAAHAEBVValue@2@PEAV?$basic_ostream@DU?$char_traits@D@std@@@std@@@Z DD 060f01H
	DD	07640fH
	DD	06340fH
	DD	0700b320fH
xdata	ENDS
;	COMDAT xdata
xdata	SEGMENT
$ip2state$?writeValue@BuiltStyledStreamWriter@Json@@AEAAXAEBVValue@2@@Z DD imagerel ?writeValue@BuiltStyledStreamWriter@Json@@AEAAXAEBVValue@2@@Z
	DD	0ffffffffH
	DD	imagerel ?writeValue@BuiltStyledStreamWriter@Json@@AEAAXAEBVValue@2@@Z+99
	DD	00H
	DD	imagerel ?writeValue@BuiltStyledStreamWriter@Json@@AEAAXAEBVValue@2@@Z+101
	DD	0ffffffffH
	DD	imagerel ?writeValue@BuiltStyledStreamWriter@Json@@AEAAXAEBVValue@2@@Z+166
	DD	00H
	DD	imagerel ?writeValue@BuiltStyledStreamWriter@Json@@AEAAXAEBVValue@2@@Z+199
	DD	0ffffffffH
	DD	imagerel ?writeValue@BuiltStyledStreamWriter@Json@@AEAAXAEBVValue@2@@Z+240
	DD	01H
	DD	imagerel ?writeValue@BuiltStyledStreamWriter@Json@@AEAAXAEBVValue@2@@Z+273
	DD	0ffffffffH
	DD	imagerel ?writeValue@BuiltStyledStreamWriter@Json@@AEAAXAEBVValue@2@@Z+338
	DD	02H
	DD	imagerel ?writeValue@BuiltStyledStreamWriter@Json@@AEAAXAEBVValue@2@@Z+371
	DD	0ffffffffH
	DD	imagerel ?writeValue@BuiltStyledStreamWriter@Json@@AEAAXAEBVValue@2@@Z+457
	DD	03H
	DD	imagerel ?writeValue@BuiltStyledStreamWriter@Json@@AEAAXAEBVValue@2@@Z+490
	DD	0ffffffffH
	DD	imagerel ?writeValue@BuiltStyledStreamWriter@Json@@AEAAXAEBVValue@2@@Z+548
	DD	04H
	DD	imagerel ?writeValue@BuiltStyledStreamWriter@Json@@AEAAXAEBVValue@2@@Z+582
	DD	0ffffffffH
	DD	imagerel ?writeValue@BuiltStyledStreamWriter@Json@@AEAAXAEBVValue@2@@Z+623
	DD	05H
	DD	imagerel ?writeValue@BuiltStyledStreamWriter@Json@@AEAAXAEBVValue@2@@Z+656
	DD	0ffffffffH
	DD	imagerel ?writeValue@BuiltStyledStreamWriter@Json@@AEAAXAEBVValue@2@@Z+709
	DD	06H
	DD	imagerel ?writeValue@BuiltStyledStreamWriter@Json@@AEAAXAEBVValue@2@@Z+764
	DD	07H
	DD	imagerel ?writeValue@BuiltStyledStreamWriter@Json@@AEAAXAEBVValue@2@@Z+799
	DD	06H
	DD	imagerel ?writeValue@BuiltStyledStreamWriter@Json@@AEAAXAEBVValue@2@@Z+881
	DD	08H
	DD	imagerel ?writeValue@BuiltStyledStreamWriter@Json@@AEAAXAEBVValue@2@@Z+945
	DD	06H
	DD	imagerel ?writeValue@BuiltStyledStreamWriter@Json@@AEAAXAEBVValue@2@@Z+1066
	DD	09H
	DD	imagerel ?writeValue@BuiltStyledStreamWriter@Json@@AEAAXAEBVValue@2@@Z+1078
	DD	06H
	DD	imagerel ?writeValue@BuiltStyledStreamWriter@Json@@AEAAXAEBVValue@2@@Z+1244
	DD	0aH
	DD	imagerel ?writeValue@BuiltStyledStreamWriter@Json@@AEAAXAEBVValue@2@@Z+1304
	DD	06H
	DD	imagerel ?writeValue@BuiltStyledStreamWriter@Json@@AEAAXAEBVValue@2@@Z+1339
	DD	0ffffffffH
	DD	imagerel ?writeValue@BuiltStyledStreamWriter@Json@@AEAAXAEBVValue@2@@Z+1452
	DD	00H
xdata	ENDS
;	COMDAT xdata
xdata	SEGMENT
$stateUnwindMap$?writeValue@BuiltStyledStreamWriter@Json@@AEAAXAEBVValue@2@@Z DD 0ffffffffH
	DD	imagerel ?dtor$0@?0??writeValue@BuiltStyledStreamWriter@Json@@AEAAXAEBVValue@2@@Z@4HA
	DD	0ffffffffH
	DD	imagerel ?dtor$1@?0??writeValue@BuiltStyledStreamWriter@Json@@AEAAXAEBVValue@2@@Z@4HA
	DD	0ffffffffH
	DD	imagerel ?dtor$2@?0??writeValue@BuiltStyledStreamWriter@Json@@AEAAXAEBVValue@2@@Z@4HA
	DD	0ffffffffH
	DD	imagerel ?dtor$3@?0??writeValue@BuiltStyledStreamWriter@Json@@AEAAXAEBVValue@2@@Z@4HA
	DD	0ffffffffH
	DD	imagerel ?dtor$4@?0??writeValue@BuiltStyledStreamWriter@Json@@AEAAXAEBVValue@2@@Z@4HA
	DD	0ffffffffH
	DD	imagerel ?dtor$5@?0??writeValue@BuiltStyledStreamWriter@Json@@AEAAXAEBVValue@2@@Z@4HA
	DD	0ffffffffH
	DD	imagerel ?dtor$6@?0??writeValue@BuiltStyledStreamWriter@Json@@AEAAXAEBVValue@2@@Z@4HA
	DD	06H
	DD	imagerel ?dtor$7@?0??writeValue@BuiltStyledStreamWriter@Json@@AEAAXAEBVValue@2@@Z@4HA
	DD	06H
	DD	imagerel ?dtor$8@?0??writeValue@BuiltStyledStreamWriter@Json@@AEAAXAEBVValue@2@@Z@4HA
	DD	06H
	DD	imagerel ?dtor$9@?0??writeValue@BuiltStyledStreamWriter@Json@@AEAAXAEBVValue@2@@Z@4HA
	DD	06H
	DD	imagerel ?dtor$10@?0??writeValue@BuiltStyledStreamWriter@Json@@AEAAXAEBVValue@2@@Z@4HA
xdata	ENDS
;	COMDAT CONST
CONST	SEGMENT
$cppxdata$?writeValue@BuiltStyledStreamWriter@Json@@AEAAXAEBVValue@2@@Z DD 019930522H
	DD	0bH
	DD	imagerel $stateUnwindMap$?writeValue@BuiltStyledStreamWriter@Json@@AEAAXAEBVValue@2@@Z
	DD	00H
	DD	00H
	DD	01aH
	DD	imagerel $ip2state$?writeValue@BuiltStyledStreamWriter@Json@@AEAAXAEBVValue@2@@Z
	DD	050H
	DD	00H
	DD	01H
CONST	ENDS
;	COMDAT xdata
xdata	SEGMENT
$unwind$?writeValue@BuiltStyledStreamWriter@Json@@AEAAXAEBVValue@2@@Z DD 073519H
	DD	03a3424H
	DD	0340113H
	DD	060037004H
	DD	05002H
	DD	imagerel __GSHandlerCheck_EH
	DD	imagerel $cppxdata$?writeValue@BuiltStyledStreamWriter@Json@@AEAAXAEBVValue@2@@Z
	DD	019aH
xdata	ENDS
;	COMDAT xdata
xdata	SEGMENT
$ip2state$?writeArrayValue@BuiltStyledStreamWriter@Json@@AEAAXAEBVValue@2@@Z DD imagerel ?writeArrayValue@BuiltStyledStreamWriter@Json@@AEAAXAEBVValue@2@@Z
	DD	0ffffffffH
	DD	imagerel ?writeArrayValue@BuiltStyledStreamWriter@Json@@AEAAXAEBVValue@2@@Z+319
	DD	01H
	DD	imagerel ?writeArrayValue@BuiltStyledStreamWriter@Json@@AEAAXAEBVValue@2@@Z+381
	DD	0ffffffffH
	DD	imagerel ?writeArrayValue@BuiltStyledStreamWriter@Json@@AEAAXAEBVValue@2@@Z+761
	DD	02H
	DD	imagerel ?writeArrayValue@BuiltStyledStreamWriter@Json@@AEAAXAEBVValue@2@@Z+821
	DD	0ffffffffH
	DD	imagerel ?writeArrayValue@BuiltStyledStreamWriter@Json@@AEAAXAEBVValue@2@@Z+866
	DD	00H
	DD	imagerel ?writeArrayValue@BuiltStyledStreamWriter@Json@@AEAAXAEBVValue@2@@Z+901
	DD	0ffffffffH
xdata	ENDS
;	COMDAT xdata
xdata	SEGMENT
$stateUnwindMap$?writeArrayValue@BuiltStyledStreamWriter@Json@@AEAAXAEBVValue@2@@Z DD 0ffffffffH
	DD	imagerel ?dtor$0@?0??writeArrayValue@BuiltStyledStreamWriter@Json@@AEAAXAEBVValue@2@@Z@4HA
	DD	0ffffffffH
	DD	imagerel ?dtor$1@?0??writeArrayValue@BuiltStyledStreamWriter@Json@@AEAAXAEBVValue@2@@Z@4HA
	DD	0ffffffffH
	DD	imagerel ?dtor$2@?0??writeArrayValue@BuiltStyledStreamWriter@Json@@AEAAXAEBVValue@2@@Z@4HA
xdata	ENDS
;	COMDAT CONST
CONST	SEGMENT
$cppxdata$?writeArrayValue@BuiltStyledStreamWriter@Json@@AEAAXAEBVValue@2@@Z DD 019930522H
	DD	03H
	DD	imagerel $stateUnwindMap$?writeArrayValue@BuiltStyledStreamWriter@Json@@AEAAXAEBVValue@2@@Z
	DD	00H
	DD	00H
	DD	07H
	DD	imagerel $ip2state$?writeArrayValue@BuiltStyledStreamWriter@Json@@AEAAXAEBVValue@2@@Z
	DD	028H
	DD	00H
	DD	01H
CONST	ENDS
;	COMDAT xdata
xdata	SEGMENT
$unwind$?writeArrayValue@BuiltStyledStreamWriter@Json@@AEAAXAEBVValue@2@@Z DD 0a3019H
	DD	0163421H
	DD	0f00cb210H
	DD	0d008e00aH
	DD	07004c006H
	DD	050026003H
	DD	imagerel __GSHandlerCheck_EH
	DD	imagerel $cppxdata$?writeArrayValue@BuiltStyledStreamWriter@Json@@AEAAXAEBVValue@2@@Z
	DD	052H
xdata	ENDS
;	COMDAT xdata
xdata	SEGMENT
$chain$1$?isMultineArray@BuiltStyledStreamWriter@Json@@AEAA_NAEBVValue@2@@Z DD 021H
	DD	imagerel $LN99
	DD	imagerel $LN99+225
	DD	imagerel $unwind$?isMultineArray@BuiltStyledStreamWriter@Json@@AEAA_NAEBVValue@2@@Z
xdata	ENDS
;	COMDAT xdata
xdata	SEGMENT
$chain$0$?isMultineArray@BuiltStyledStreamWriter@Json@@AEAA_NAEBVValue@2@@Z DD 020521H
	DD	0ac405H
	DD	imagerel $LN99
	DD	imagerel $LN99+225
	DD	imagerel $unwind$?isMultineArray@BuiltStyledStreamWriter@Json@@AEAA_NAEBVValue@2@@Z
xdata	ENDS
;	COMDAT xdata
xdata	SEGMENT
$unwind$?isMultineArray@BuiltStyledStreamWriter@Json@@AEAA_NAEBVValue@2@@Z DD 0a1601H
	DD	0c5416H
	DD	0b3416H
	DD	0f0123216H
	DD	0d00ee010H
	DD	0600b700cH
xdata	ENDS
;	COMDAT xdata
xdata	SEGMENT
$chain$2$?writeIndent@BuiltStyledStreamWriter@Json@@AEAAXXZ DD 021H
	DD	imagerel $LN7
	DD	imagerel $LN7+11
	DD	imagerel $unwind$?writeIndent@BuiltStyledStreamWriter@Json@@AEAAXXZ
xdata	ENDS
;	COMDAT xdata
xdata	SEGMENT
$chain$1$?writeIndent@BuiltStyledStreamWriter@Json@@AEAAXXZ DD 021H
	DD	imagerel $LN7
	DD	imagerel $LN7+11
	DD	imagerel $unwind$?writeIndent@BuiltStyledStreamWriter@Json@@AEAAXXZ
xdata	ENDS
;	COMDAT xdata
xdata	SEGMENT
$chain$0$?writeIndent@BuiltStyledStreamWriter@Json@@AEAAXXZ DD 020521H
	DD	043405H
	DD	imagerel $LN7
	DD	imagerel $LN7+11
	DD	imagerel $unwind$?writeIndent@BuiltStyledStreamWriter@Json@@AEAAXXZ
xdata	ENDS
;	COMDAT xdata
xdata	SEGMENT
$unwind$?writeIndent@BuiltStyledStreamWriter@Json@@AEAAXXZ DD 010401H
	DD	04204H
xdata	ENDS
;	COMDAT xdata
xdata	SEGMENT
$chain$1$?writeWithIndent@BuiltStyledStreamWriter@Json@@AEAAXAEBV?$basic_string@DU?$char_traits@D@std@@V?$allocator@D@2@@std@@@Z DD 021H
	DD	imagerel $LN10
	DD	imagerel $LN10+38
	DD	imagerel $unwind$?writeWithIndent@BuiltStyledStreamWriter@Json@@AEAAXAEBV?$basic_string@DU?$char_traits@D@std@@V?$allocator@D@2@@std@@@Z
xdata	ENDS
;	COMDAT xdata
xdata	SEGMENT
$chain$0$?writeWithIndent@BuiltStyledStreamWriter@Json@@AEAAXAEBV?$basic_string@DU?$char_traits@D@std@@V?$allocator@D@2@@std@@@Z DD 020521H
	DD	063405H
	DD	imagerel $LN10
	DD	imagerel $LN10+38
	DD	imagerel $unwind$?writeWithIndent@BuiltStyledStreamWriter@Json@@AEAAXAEBV?$basic_string@DU?$char_traits@D@std@@V?$allocator@D@2@@std@@@Z
xdata	ENDS
;	COMDAT xdata
xdata	SEGMENT
$unwind$?writeWithIndent@BuiltStyledStreamWriter@Json@@AEAAXAEBV?$basic_string@DU?$char_traits@D@std@@V?$allocator@D@2@@std@@@Z DD 040a01H
	DD	07640aH
	DD	07006320aH
xdata	ENDS
;	COMDAT xdata
xdata	SEGMENT
$ip2state$?writeCommentBeforeValue@BuiltStyledStreamWriter@Json@@AEAAXAEBVValue@2@@Z DD imagerel ?writeCommentBeforeValue@BuiltStyledStreamWriter@Json@@AEAAXAEBVValue@2@@Z
	DD	0ffffffffH
	DD	imagerel ?writeCommentBeforeValue@BuiltStyledStreamWriter@Json@@AEAAXAEBVValue@2@@Z+135
	DD	00H
	DD	imagerel ?writeCommentBeforeValue@BuiltStyledStreamWriter@Json@@AEAAXAEBVValue@2@@Z+265
	DD	0ffffffffH
xdata	ENDS
;	COMDAT xdata
xdata	SEGMENT
$stateUnwindMap$?writeCommentBeforeValue@BuiltStyledStreamWriter@Json@@AEAAXAEBVValue@2@@Z DD 0ffffffffH
	DD	imagerel ?dtor$0@?0??writeCommentBeforeValue@BuiltStyledStreamWriter@Json@@AEAAXAEBVValue@2@@Z@4HA
xdata	ENDS
;	COMDAT CONST
CONST	SEGMENT
$cppxdata$?writeCommentBeforeValue@BuiltStyledStreamWriter@Json@@AEAAXAEBVValue@2@@Z DD 019930522H
	DD	01H
	DD	imagerel $stateUnwindMap$?writeCommentBeforeValue@BuiltStyledStreamWriter@Json@@AEAAXAEBVValue@2@@Z
	DD	00H
	DD	00H
	DD	03H
	DD	imagerel $ip2state$?writeCommentBeforeValue@BuiltStyledStreamWriter@Json@@AEAAXAEBVValue@2@@Z
	DD	020H
	DD	00H
	DD	01H
CONST	ENDS
;	COMDAT xdata
xdata	SEGMENT
$unwind$?writeCommentBeforeValue@BuiltStyledStreamWriter@Json@@AEAAXAEBVValue@2@@Z DD 062819H
	DD	0f6419H
	DD	0e3414H
	DD	070029206H
	DD	imagerel __GSHandlerCheck_EH
	DD	imagerel $cppxdata$?writeCommentBeforeValue@BuiltStyledStreamWriter@Json@@AEAAXAEBVValue@2@@Z
	DD	04aH
xdata	ENDS
;	COMDAT xdata
xdata	SEGMENT
$ip2state$?writeCommentAfterValueOnSameLine@BuiltStyledStreamWriter@Json@@AEAAXAEBVValue@2@@Z DD imagerel ?writeCommentAfterValueOnSameLine@BuiltStyledStreamWriter@Json@@AEAAXAEBVValue@2@@Z
	DD	0ffffffffH
	DD	imagerel ?writeCommentAfterValueOnSameLine@BuiltStyledStreamWriter@Json@@AEAAXAEBVValue@2@@Z+90
	DD	00H
	DD	imagerel ?writeCommentAfterValueOnSameLine@BuiltStyledStreamWriter@Json@@AEAAXAEBVValue@2@@Z+111
	DD	01H
	DD	imagerel ?writeCommentAfterValueOnSameLine@BuiltStyledStreamWriter@Json@@AEAAXAEBVValue@2@@Z+124
	DD	00H
	DD	imagerel ?writeCommentAfterValueOnSameLine@BuiltStyledStreamWriter@Json@@AEAAXAEBVValue@2@@Z+166
	DD	0ffffffffH
	DD	imagerel ?writeCommentAfterValueOnSameLine@BuiltStyledStreamWriter@Json@@AEAAXAEBVValue@2@@Z+251
	DD	02H
	DD	imagerel ?writeCommentAfterValueOnSameLine@BuiltStyledStreamWriter@Json@@AEAAXAEBVValue@2@@Z+264
	DD	0ffffffffH
xdata	ENDS
;	COMDAT xdata
xdata	SEGMENT
$stateUnwindMap$?writeCommentAfterValueOnSameLine@BuiltStyledStreamWriter@Json@@AEAAXAEBVValue@2@@Z DD 0ffffffffH
	DD	imagerel ?dtor$0@?0??writeCommentAfterValueOnSameLine@BuiltStyledStreamWriter@Json@@AEAAXAEBVValue@2@@Z@4HA
	DD	00H
	DD	imagerel ?dtor$1@?0??writeCommentAfterValueOnSameLine@BuiltStyledStreamWriter@Json@@AEAAXAEBVValue@2@@Z@4HA
	DD	0ffffffffH
	DD	imagerel ?dtor$2@?0??writeCommentAfterValueOnSameLine@BuiltStyledStreamWriter@Json@@AEAAXAEBVValue@2@@Z@4HA
xdata	ENDS
;	COMDAT CONST
CONST	SEGMENT
$cppxdata$?writeCommentAfterValueOnSameLine@BuiltStyledStreamWriter@Json@@AEAAXAEBVValue@2@@Z DD 019930522H
	DD	03H
	DD	imagerel $stateUnwindMap$?writeCommentAfterValueOnSameLine@BuiltStyledStreamWriter@Json@@AEAAXAEBVValue@2@@Z
	DD	00H
	DD	00H
	DD	07H
	DD	imagerel $ip2state$?writeCommentAfterValueOnSameLine@BuiltStyledStreamWriter@Json@@AEAAXAEBVValue@2@@Z
	DD	020H
	DD	00H
	DD	01H
CONST	ENDS
;	COMDAT xdata
xdata	SEGMENT
$unwind$?writeCommentAfterValueOnSameLine@BuiltStyledStreamWriter@Json@@AEAAXAEBVValue@2@@Z DD 062719H
	DD	0136418H
	DD	0123414H
	DD	07004d208H
	DD	imagerel __GSHandlerCheck_EH
	DD	imagerel $cppxdata$?writeCommentAfterValueOnSameLine@BuiltStyledStreamWriter@Json@@AEAAXAEBVValue@2@@Z
	DD	06aH
xdata	ENDS
;	COMDAT xdata
xdata	SEGMENT
$unwind$??_GStreamWriter@Json@@UEAAPEAXI@Z DD 020601H
	DD	030023206H
xdata	ENDS
;	COMDAT xdata
xdata	SEGMENT
$unwind$??_GFactory@StreamWriter@Json@@UEAAPEAXI@Z DD 020601H
	DD	030023206H
xdata	ENDS
;	COMDAT xdata
xdata	SEGMENT
$ip2state$??_GStreamWriterBuilder@Json@@UEAAPEAXI@Z DD imagerel ??_GStreamWriterBuilder@Json@@UEAAPEAXI@Z
	DD	0ffffffffH
	DD	imagerel ??_GStreamWriterBuilder@Json@@UEAAPEAXI@Z+39
	DD	00H
	DD	imagerel ??_GStreamWriterBuilder@Json@@UEAAPEAXI@Z+49
	DD	0ffffffffH
xdata	ENDS
;	COMDAT xdata
xdata	SEGMENT
$stateUnwindMap$??_GStreamWriterBuilder@Json@@UEAAPEAXI@Z DD 0ffffffffH
	DD	imagerel ?dtor$0@?0???_GStreamWriterBuilder@Json@@UEAAPEAXI@Z@4HA
xdata	ENDS
;	COMDAT CONST
CONST	SEGMENT
$cppxdata$??_GStreamWriterBuilder@Json@@UEAAPEAXI@Z DD 019930522H
	DD	01H
	DD	imagerel $stateUnwindMap$??_GStreamWriterBuilder@Json@@UEAAPEAXI@Z
	DD	00H
	DD	00H
	DD	03H
	DD	imagerel $ip2state$??_GStreamWriterBuilder@Json@@UEAAPEAXI@Z
	DD	020H
	DD	00H
	DD	01H
CONST	ENDS
;	COMDAT xdata
xdata	SEGMENT
$unwind$??_GStreamWriterBuilder@Json@@UEAAPEAXI@Z DD 041811H
	DD	093418H
	DD	07006520aH
	DD	imagerel __CxxFrameHandler3
	DD	imagerel $cppxdata$??_GStreamWriterBuilder@Json@@UEAAPEAXI@Z
xdata	ENDS
;	COMDAT xdata
xdata	SEGMENT
$ip2state$??1StreamWriterBuilder@Json@@UEAA@XZ DD imagerel ??1StreamWriterBuilder@Json@@UEAA@XZ
	DD	0ffffffffH
	DD	imagerel ??1StreamWriterBuilder@Json@@UEAA@XZ+32
	DD	00H
	DD	imagerel ??1StreamWriterBuilder@Json@@UEAA@XZ+42
	DD	0ffffffffH
xdata	ENDS
;	COMDAT xdata
xdata	SEGMENT
$stateUnwindMap$??1StreamWriterBuilder@Json@@UEAA@XZ DD 0ffffffffH
	DD	imagerel ?dtor$0@?0???1StreamWriterBuilder@Json@@UEAA@XZ@4HA
xdata	ENDS
;	COMDAT CONST
CONST	SEGMENT
$cppxdata$??1StreamWriterBuilder@Json@@UEAA@XZ DD 019930522H
	DD	01H
	DD	imagerel $stateUnwindMap$??1StreamWriterBuilder@Json@@UEAA@XZ
	DD	00H
	DD	00H
	DD	03H
	DD	imagerel $ip2state$??1StreamWriterBuilder@Json@@UEAA@XZ
	DD	020H
	DD	00H
	DD	01H
CONST	ENDS
;	COMDAT xdata
xdata	SEGMENT
$unwind$??1StreamWriterBuilder@Json@@UEAA@XZ DD 021311H
	DD	03006520aH
	DD	imagerel __CxxFrameHandler3
	DD	imagerel $cppxdata$??1StreamWriterBuilder@Json@@UEAA@XZ
xdata	ENDS
;	COMDAT xdata
xdata	SEGMENT
$unwind$?dtor$37@?0??newStreamWriter@StreamWriterBuilder@Json@@UEBAPEAVStreamWriter@2@XZ@4HA DD 010201H
	DD	05002H
xdata	ENDS
;	COMDAT xdata
xdata	SEGMENT
$unwind$?dtor$31@?0??newStreamWriter@StreamWriterBuilder@Json@@UEBAPEAVStreamWriter@2@XZ@4HA DD 010201H
	DD	05002H
xdata	ENDS
;	COMDAT xdata
xdata	SEGMENT
$unwind$?dtor$25@?0??newStreamWriter@StreamWriterBuilder@Json@@UEBAPEAVStreamWriter@2@XZ@4HA DD 010201H
	DD	05002H
xdata	ENDS
;	COMDAT xdata
xdata	SEGMENT
$unwind$?dtor$19@?0??newStreamWriter@StreamWriterBuilder@Json@@UEBAPEAVStreamWriter@2@XZ@4HA DD 010201H
	DD	05002H
xdata	ENDS
;	COMDAT xdata
xdata	SEGMENT
$unwind$?dtor$13@?0??newStreamWriter@StreamWriterBuilder@Json@@UEBAPEAVStreamWriter@2@XZ@4HA DD 010201H
	DD	05002H
xdata	ENDS
;	COMDAT xdata
xdata	SEGMENT
$unwind$?dtor$7@?0??newStreamWriter@StreamWriterBuilder@Json@@UEBAPEAVStreamWriter@2@XZ@4HA DD 010201H
	DD	05002H
xdata	ENDS
;	COMDAT xdata
xdata	SEGMENT
$ip2state$?newStreamWriter@StreamWriterBuilder@Json@@UEBAPEAVStreamWriter@2@XZ DD imagerel ?newStreamWriter@StreamWriterBuilder@Json@@UEBAPEAVStreamWriter@2@XZ
	DD	0ffffffffH
	DD	imagerel ?newStreamWriter@StreamWriterBuilder@Json@@UEBAPEAVStreamWriter@2@XZ+117
	DD	00H
	DD	imagerel ?newStreamWriter@StreamWriterBuilder@Json@@UEBAPEAVStreamWriter@2@XZ+165
	DD	0ffffffffH
	DD	imagerel ?newStreamWriter@StreamWriterBuilder@Json@@UEBAPEAVStreamWriter@2@XZ+181
	DD	02H
	DD	imagerel ?newStreamWriter@StreamWriterBuilder@Json@@UEBAPEAVStreamWriter@2@XZ+227
	DD	03H
	DD	imagerel ?newStreamWriter@StreamWriterBuilder@Json@@UEBAPEAVStreamWriter@2@XZ+275
	DD	02H
	DD	imagerel ?newStreamWriter@StreamWriterBuilder@Json@@UEBAPEAVStreamWriter@2@XZ+291
	DD	05H
	DD	imagerel ?newStreamWriter@StreamWriterBuilder@Json@@UEBAPEAVStreamWriter@2@XZ+337
	DD	06H
	DD	imagerel ?newStreamWriter@StreamWriterBuilder@Json@@UEBAPEAVStreamWriter@2@XZ+385
	DD	05H
	DD	imagerel ?newStreamWriter@StreamWriterBuilder@Json@@UEBAPEAVStreamWriter@2@XZ+447
	DD	08H
	DD	imagerel ?newStreamWriter@StreamWriterBuilder@Json@@UEBAPEAVStreamWriter@2@XZ+494
	DD	05H
	DD	imagerel ?newStreamWriter@StreamWriterBuilder@Json@@UEBAPEAVStreamWriter@2@XZ+556
	DD	0aH
	DD	imagerel ?newStreamWriter@StreamWriterBuilder@Json@@UEBAPEAVStreamWriter@2@XZ+603
	DD	05H
	DD	imagerel ?newStreamWriter@StreamWriterBuilder@Json@@UEBAPEAVStreamWriter@2@XZ+665
	DD	0cH
	DD	imagerel ?newStreamWriter@StreamWriterBuilder@Json@@UEBAPEAVStreamWriter@2@XZ+712
	DD	05H
	DD	imagerel ?newStreamWriter@StreamWriterBuilder@Json@@UEBAPEAVStreamWriter@2@XZ+949
	DD	0fH
	DD	imagerel ?newStreamWriter@StreamWriterBuilder@Json@@UEBAPEAVStreamWriter@2@XZ+1039
	DD	010H
	DD	imagerel ?newStreamWriter@StreamWriterBuilder@Json@@UEBAPEAVStreamWriter@2@XZ+1092
	DD	011H
	DD	imagerel ?newStreamWriter@StreamWriterBuilder@Json@@UEBAPEAVStreamWriter@2@XZ+1111
	DD	012H
	DD	imagerel ?newStreamWriter@StreamWriterBuilder@Json@@UEBAPEAVStreamWriter@2@XZ+1124
	DD	013H
	DD	imagerel ?newStreamWriter@StreamWriterBuilder@Json@@UEBAPEAVStreamWriter@2@XZ+1146
	DD	014H
	DD	imagerel ?newStreamWriter@StreamWriterBuilder@Json@@UEBAPEAVStreamWriter@2@XZ+1158
	DD	015H
	DD	imagerel ?newStreamWriter@StreamWriterBuilder@Json@@UEBAPEAVStreamWriter@2@XZ+1197
	DD	016H
	DD	imagerel ?newStreamWriter@StreamWriterBuilder@Json@@UEBAPEAVStreamWriter@2@XZ+1233
	DD	017H
	DD	imagerel ?newStreamWriter@StreamWriterBuilder@Json@@UEBAPEAVStreamWriter@2@XZ+1268
	DD	018H
	DD	imagerel ?newStreamWriter@StreamWriterBuilder@Json@@UEBAPEAVStreamWriter@2@XZ+1330
	DD	012H
	DD	imagerel ?newStreamWriter@StreamWriterBuilder@Json@@UEBAPEAVStreamWriter@2@XZ+1339
	DD	010H
	DD	imagerel ?newStreamWriter@StreamWriterBuilder@Json@@UEBAPEAVStreamWriter@2@XZ+1356
	DD	0fH
	DD	imagerel ?newStreamWriter@StreamWriterBuilder@Json@@UEBAPEAVStreamWriter@2@XZ+1389
	DD	05H
	DD	imagerel ?newStreamWriter@StreamWriterBuilder@Json@@UEBAPEAVStreamWriter@2@XZ+1422
	DD	02H
	DD	imagerel ?newStreamWriter@StreamWriterBuilder@Json@@UEBAPEAVStreamWriter@2@XZ+1455
	DD	0ffffffffH
	DD	imagerel ?newStreamWriter@StreamWriterBuilder@Json@@UEBAPEAVStreamWriter@2@XZ+1477
	DD	05H
	DD	imagerel ?newStreamWriter@StreamWriterBuilder@Json@@UEBAPEAVStreamWriter@2@XZ+1520
	DD	0eH
	DD	imagerel ?newStreamWriter@StreamWriterBuilder@Json@@UEBAPEAVStreamWriter@2@XZ+1530
	DD	0ffffffffH
xdata	ENDS
;	COMDAT xdata
xdata	SEGMENT
$stateUnwindMap$?newStreamWriter@StreamWriterBuilder@Json@@UEBAPEAVStreamWriter@2@XZ DD 0ffffffffH
	DD	imagerel ?dtor$7@?0??newStreamWriter@StreamWriterBuilder@Json@@UEBAPEAVStreamWriter@2@XZ@4HA
	DD	00H
	DD	00H
	DD	0ffffffffH
	DD	imagerel ?dtor$0@?0??newStreamWriter@StreamWriterBuilder@Json@@UEBAPEAVStreamWriter@2@XZ@4HA
	DD	02H
	DD	imagerel ?dtor$13@?0??newStreamWriter@StreamWriterBuilder@Json@@UEBAPEAVStreamWriter@2@XZ@4HA
	DD	03H
	DD	00H
	DD	02H
	DD	imagerel ?dtor$1@?0??newStreamWriter@StreamWriterBuilder@Json@@UEBAPEAVStreamWriter@2@XZ@4HA
	DD	05H
	DD	imagerel ?dtor$19@?0??newStreamWriter@StreamWriterBuilder@Json@@UEBAPEAVStreamWriter@2@XZ@4HA
	DD	06H
	DD	00H
	DD	05H
	DD	imagerel ?dtor$25@?0??newStreamWriter@StreamWriterBuilder@Json@@UEBAPEAVStreamWriter@2@XZ@4HA
	DD	08H
	DD	00H
	DD	05H
	DD	imagerel ?dtor$31@?0??newStreamWriter@StreamWriterBuilder@Json@@UEBAPEAVStreamWriter@2@XZ@4HA
	DD	0aH
	DD	00H
	DD	05H
	DD	imagerel ?dtor$37@?0??newStreamWriter@StreamWriterBuilder@Json@@UEBAPEAVStreamWriter@2@XZ@4HA
	DD	0cH
	DD	00H
	DD	05H
	DD	imagerel ?dtor$2@?0??newStreamWriter@StreamWriterBuilder@Json@@UEBAPEAVStreamWriter@2@XZ@4HA
	DD	05H
	DD	imagerel ?dtor$3@?0??newStreamWriter@StreamWriterBuilder@Json@@UEBAPEAVStreamWriter@2@XZ@4HA
	DD	0fH
	DD	imagerel ?dtor$4@?0??newStreamWriter@StreamWriterBuilder@Json@@UEBAPEAVStreamWriter@2@XZ@4HA
	DD	010H
	DD	imagerel ?dtor$5@?0??newStreamWriter@StreamWriterBuilder@Json@@UEBAPEAVStreamWriter@2@XZ@4HA
	DD	011H
	DD	imagerel ?dtor$6@?0??newStreamWriter@StreamWriterBuilder@Json@@UEBAPEAVStreamWriter@2@XZ@4HA
	DD	012H
	DD	imagerel ?dtor$43@?0??newStreamWriter@StreamWriterBuilder@Json@@UEBAPEAVStreamWriter@2@XZ@4HA
	DD	013H
	DD	imagerel ?dtor$44@?0??newStreamWriter@StreamWriterBuilder@Json@@UEBAPEAVStreamWriter@2@XZ@4HA
	DD	014H
	DD	imagerel ?dtor$45@?0??newStreamWriter@StreamWriterBuilder@Json@@UEBAPEAVStreamWriter@2@XZ@4HA
	DD	015H
	DD	imagerel ?dtor$46@?0??newStreamWriter@StreamWriterBuilder@Json@@UEBAPEAVStreamWriter@2@XZ@4HA
	DD	016H
	DD	imagerel ?dtor$47@?0??newStreamWriter@StreamWriterBuilder@Json@@UEBAPEAVStreamWriter@2@XZ@4HA
	DD	017H
	DD	imagerel ?dtor$48@?0??newStreamWriter@StreamWriterBuilder@Json@@UEBAPEAVStreamWriter@2@XZ@4HA
xdata	ENDS
;	COMDAT CONST
CONST	SEGMENT
$cppxdata$?newStreamWriter@StreamWriterBuilder@Json@@UEBAPEAVStreamWriter@2@XZ DD 019930522H
	DD	019H
	DD	imagerel $stateUnwindMap$?newStreamWriter@StreamWriterBuilder@Json@@UEBAPEAVStreamWriter@2@XZ
	DD	00H
	DD	00H
	DD	022H
	DD	imagerel $ip2state$?newStreamWriter@StreamWriterBuilder@Json@@UEBAPEAVStreamWriter@2@XZ
	DD	028H
	DD	00H
	DD	01H
CONST	ENDS
;	COMDAT xdata
xdata	SEGMENT
$unwind$?newStreamWriter@StreamWriterBuilder@Json@@UEBAPEAVStreamWriter@2@XZ DD 0d3a19H
	DD	025742cH
	DD	0246428H
	DD	0233424H
	DD	01c0117H
	DD	0e00af00cH
	DD	0c006d008H
	DD	05004H
	DD	imagerel __GSHandlerCheck_EH
	DD	imagerel $cppxdata$?newStreamWriter@StreamWriterBuilder@Json@@UEBAPEAVStreamWriter@2@XZ
	DD	0d2H
xdata	ENDS
;	COMDAT xdata
xdata	SEGMENT
$unwind$??$isfinite@N@@YA_NN@Z DD 010401H
	DD	04204H
xdata	ENDS
;	COMDAT xdata
xdata	SEGMENT
$unwind$??$?6DU?$char_traits@D@std@@_J@std@@YAAEAV?$basic_ostream@DU?$char_traits@D@std@@@0@AEAV10@AEBU?$_Smanip@_J@0@@Z DD 020601H
	DD	030023206H
; Function compile flags: /Ogtpy
; File e:\jsoncpp-master\src\lib_json\json_writer.cpp
;	COMDAT ?valueToString@Json@@YA?AV?$basic_string@DU?$char_traits@D@std@@V?$allocator@D@2@@std@@N@Z
_TEXT	SEGMENT
$T1 = 32
__$ReturnUdt$ = 64
value$ = 72
?valueToString@Json@@YA?AV?$basic_string@DU?$char_traits@D@std@@V?$allocator@D@2@@std@@N@Z PROC ; Json::valueToString, COMDAT

; 176  : JSONCPP_STRING valueToString(double value) { return valueToString(value, false, 17); }

$LN6:
	push	rbx
	sub	rsp, 48					; 00000030H
	mov	r9d, 17
	xor	r8d, r8d
	mov	rbx, rcx
	mov	DWORD PTR $T1[rsp], 0
	call	?valueToString@?A0xcff6a387@Json@@YA?AV?$basic_string@DU?$char_traits@D@std@@V?$allocator@D@2@@std@@N_NI@Z ; Json::`anonymous namespace'::valueToString
	mov	rax, rbx
	add	rsp, 48					; 00000030H
	pop	rbx
	ret	0
?valueToString@Json@@YA?AV?$basic_string@DU?$char_traits@D@std@@V?$allocator@D@2@@std@@N@Z ENDP ; Json::valueToString
_TEXT	ENDS
; Function compile flags: /Ogtpy
; File e:\jsoncpp-master\src\lib_json\json_writer.cpp
; File e:\jsoncpp-master\src\lib_json\json_tool.h
; File d:\program files (x86)\microsoft visual studio 12.0\vc\include\xstring
; File d:\program files (x86)\microsoft visual studio 12.0\vc\include\iosfwd
; File d:\program files (x86)\microsoft visual studio 12.0\vc\include\xstring
; File e:\jsoncpp-master\src\lib_json\json_writer.cpp
;	COMDAT ?valueToString@Json@@YA?AV?$basic_string@DU?$char_traits@D@std@@V?$allocator@D@2@@std@@_K@Z
_TEXT	SEGMENT
$T1 = 32
buffer$ = 40
__$ArrayPad$ = 72
__$ReturnUdt$ = 96
value$ = 104
?valueToString@Json@@YA?AV?$basic_string@DU?$char_traits@D@std@@V?$allocator@D@2@@std@@_K@Z PROC ; Json::valueToString, COMDAT

; 118  : JSONCPP_STRING valueToString(LargestUInt value) {

$LN59:
	push	rbx
	sub	rsp, 80					; 00000050H
	mov	rax, QWORD PTR __security_cookie
	xor	rax, rsp
	mov	QWORD PTR __$ArrayPad$[rsp], rax
	xor	r8d, r8d
	mov	r9, rdx
	mov	rbx, rcx
; File e:\jsoncpp-master\src\lib_json\json_tool.h

; 82   :   *--current = 0;

	lea	r10, QWORD PTR buffer$[rsp+24]
	mov	r11, -3689348814741910323		; cccccccccccccccdH
	mov	DWORD PTR $T1[rsp], r8d
	mov	BYTE PTR buffer$[rsp+24], r8b
	npad	9
$LL7@valueToStr:

; 83   :   do {
; 84   :     *--current = static_cast<char>(value % 10U + static_cast<unsigned>('0'));

	dec	r10
	mov	rax, r11
	mul	r9
	shr	rdx, 3
	movzx	eax, dl
	shl	al, 2
	lea	ecx, DWORD PTR [rax+rdx]
	add	cl, cl
	sub	r9b, cl
	add	r9b, 48					; 00000030H
	mov	BYTE PTR [r10], r9b

; 85   :     value /= 10;

	mov	r9, rdx

; 86   :   } while (value != 0);

	test	rdx, rdx
	jne	SHORT $LL7@valueToStr
; File d:\program files (x86)\microsoft visual studio 12.0\vc\include\xstring

; 2284 : 		this->_Myres = this->_BUF_SIZE - 1;

	mov	QWORD PTR [rbx+24], 15

; 1170 : 		}
; 1171 : 
; 1172 : 	_Myt& assign(size_type _Count, _Elem _Ch)
; 1173 : 		{	// assign _Count * _Ch
; 1174 : 		if (_Count == npos)
; 1175 : 			_Xlen();	// result too long
; 1176 : 
; 1177 : 		if (_Grow(_Count))
; 1178 : 			{	// make room and assign new stuff
; 1179 : 			_Chassign(0, _Count, _Ch);
; 1180 : 			_Eos(_Count);
; 1181 : 			}
; 1182 : 		return (*this);
; 1183 : 		}
; 1184 : 
; 1185 : 	template<class _Iter>
; 1186 : 		typename enable_if<_Is_iterator<_Iter>::value,
; 1187 : 			_Myt&>::type
; 1188 : 		assign(_Iter _First, _Iter _Last)
; 1189 : 		{	// assign [_First, _Last), input iterators
; 1190 : 		return (replace(begin(), end(), _First, _Last));
; 1191 : 		}
; 1192 : 
; 1193 : 	_Myt& assign(const_pointer _First, const_pointer _Last)
; 1194 : 		{	// assign [_First, _Last), const pointers
; 1195 : 		return (replace(begin(), end(), _First, _Last));
; 1196 : 		}
; 1197 : 
; 1198 : 	_Myt& assign(const_iterator _First, const_iterator _Last)
; 1199 : 		{	// assign [_First, _Last), const_iterators
; 1200 : 		return (replace(begin(), end(), _First, _Last));
; 1201 : 		}
; 1202 : 
; 1203 : 	_Myt& insert(size_type _Off, const _Myt& _Right)
; 1204 : 		{	// insert _Right at _Off
; 1205 : 		return (insert(_Off, _Right, 0, npos));
; 1206 : 		}
; 1207 : 
; 1208 : 	_Myt& insert(size_type _Off,
; 1209 : 		const _Myt& _Right, size_type _Roff, size_type _Count)
; 1210 : 		{	// insert _Right [_Roff, _Roff + _Count) at _Off
; 1211 : 		if (this->_Mysize < _Off || _Right.size() < _Roff)
; 1212 : 			_Xran();	// _Off or _Roff off end
; 1213 : 		size_type _Num = _Right.size() - _Roff;
; 1214 : 		if (_Num < _Count)
; 1215 : 			_Count = _Num;	// trim _Count to size
; 1216 : 		if (npos - this->_Mysize <= _Count)
; 1217 : 			_Xlen();	// result too long
; 1218 : 
; 1219 : 		if (0 < _Count && _Grow(_Num = this->_Mysize + _Count))
; 1220 : 			{	// make room and insert new stuff
; 1221 : 			_Traits::move(this->_Myptr() + _Off + _Count,
; 1222 : 				this->_Myptr() + _Off,
; 1223 : 				this->_Mysize - _Off);	// empty out hole
; 1224 : 			if (this == &_Right)
; 1225 : 				_Traits::move(this->_Myptr() + _Off,
; 1226 : 					this->_Myptr() + (_Off < _Roff ? _Roff + _Count : _Roff),
; 1227 : 						_Count);	// substring
; 1228 : 			else
; 1229 : 				_Traits::copy(this->_Myptr() + _Off,
; 1230 : 					_Right._Myptr() + _Roff, _Count);	// fill hole
; 1231 : 			_Eos(_Num);
; 1232 : 			}
; 1233 : 		return (*this);
; 1234 : 		}
; 1235 : 
; 1236 : 	_Myt& insert(size_type _Off,
; 1237 : 		const _Elem *_Ptr, size_type _Count)
; 1238 : 		{	// insert [_Ptr, _Ptr + _Count) at _Off
; 1239 :  #if _ITERATOR_DEBUG_LEVEL == 2
; 1240 : 		if (_Count != 0)
; 1241 : 			_DEBUG_POINTER(_Ptr);
; 1242 :  #endif /* _ITERATOR_DEBUG_LEVEL == 2 */
; 1243 : 
; 1244 : 		if (_Inside(_Ptr))
; 1245 : 			return (insert(_Off, *this,
; 1246 : 				_Ptr - this->_Myptr(), _Count));	// substring
; 1247 : 		if (this->_Mysize < _Off)
; 1248 : 			_Xran();	// _Off off end
; 1249 : 		if (npos - this->_Mysize <= _Count)
; 1250 : 			_Xlen();	// result too long
; 1251 : 		size_type _Num;
; 1252 : 		if (0 < _Count && _Grow(_Num = this->_Mysize + _Count))
; 1253 : 			{	// make room and insert new stuff
; 1254 : 			_Traits::move(this->_Myptr() + _Off + _Count,
; 1255 : 				this->_Myptr() + _Off,
; 1256 : 				this->_Mysize - _Off);	// empty out hole
; 1257 : 			_Traits::copy(this->_Myptr() + _Off, _Ptr, _Count);	// fill hole
; 1258 : 			_Eos(_Num);
; 1259 : 			}
; 1260 : 		return (*this);
; 1261 : 		}
; 1262 : 
; 1263 : 	_Myt& insert(size_type _Off, const _Elem *_Ptr)
; 1264 : 		{	// insert [_Ptr, <null>) at _Off
; 1265 : 		_DEBUG_POINTER(_Ptr);
; 1266 : 		return (insert(_Off, _Ptr, _Traits::length(_Ptr)));
; 1267 : 		}
; 1268 : 
; 1269 : 	_Myt& insert(size_type _Off,
; 1270 : 		size_type _Count, _Elem _Ch)
; 1271 : 		{	// insert _Count * _Ch at _Off
; 1272 : 		if (this->_Mysize < _Off)
; 1273 : 			_Xran();	// _Off off end
; 1274 : 		if (npos - this->_Mysize <= _Count)
; 1275 : 			_Xlen();	// result too long
; 1276 : 		size_type _Num;
; 1277 : 		if (0 < _Count && _Grow(_Num = this->_Mysize + _Count))
; 1278 : 			{	// make room and insert new stuff
; 1279 : 			_Traits::move(this->_Myptr() + _Off + _Count,
; 1280 : 				this->_Myptr() + _Off,
; 1281 : 				this->_Mysize - _Off);	// empty out hole
; 1282 : 			_Chassign(_Off, _Count, _Ch);	// fill hole
; 1283 : 			_Eos(_Num);
; 1284 : 			}
; 1285 : 		return (*this);
; 1286 : 		}
; 1287 : 
; 1288 : 	iterator insert(const_iterator _Where)
; 1289 : 		{	// insert <null> at _Where
; 1290 : 		return (insert(_Where, _Elem()));
; 1291 : 		}
; 1292 : 
; 1293 : 	iterator insert(const_iterator _Where, _Elem _Ch)
; 1294 : 		{	// insert _Ch at _Where
; 1295 : 		size_type _Off = _Pdif(_Where, begin());
; 1296 : 		insert(_Off, 1, _Ch);
; 1297 : 		return (begin() + _Off);
; 1298 : 		}
; 1299 : 
; 1300 : 	iterator insert(const_iterator _Where, size_type _Count, _Elem _Ch)
; 1301 : 		{	// insert _Count * _Elem at _Where
; 1302 : 		size_type _Off = _Pdif(_Where, begin());
; 1303 : 		insert(_Off, _Count, _Ch);
; 1304 : 		return (begin() + _Off);
; 1305 : 		}
; 1306 : 
; 1307 : 	template<class _Iter>
; 1308 : 		typename enable_if<_Is_iterator<_Iter>::value,
; 1309 : 			iterator>::type
; 1310 : 		insert(const_iterator _Where, _Iter _First, _Iter _Last)
; 1311 : 		{	// insert [_First, _Last) at _Where, input iterators
; 1312 : 		size_type _Off = _Pdif(_Where, begin());
; 1313 : 		replace(_Where, _Where, _First, _Last);
; 1314 : 		return (begin() + _Off);
; 1315 : 		}
; 1316 : 
; 1317 : 	iterator insert(const_iterator _Where,
; 1318 : 		const_pointer _First, const_pointer _Last)
; 1319 : 		{	// insert [_First, _Last) at _Where, const pointers
; 1320 : 		size_type _Off = _Pdif(_Where, begin());
; 1321 : 		replace(_Where, _Where, _First, _Last);
; 1322 : 		return (begin() + _Off);
; 1323 : 		}
; 1324 : 
; 1325 : 	iterator insert(const_iterator _Where,
; 1326 : 		const_iterator _First, const_iterator _Last)
; 1327 : 		{	// insert [_First, _Last) at _Where, const_iterators
; 1328 : 		size_type _Off = _Pdif(_Where, begin());
; 1329 : 		replace(_Where, _Where, _First, _Last);
; 1330 : 		return (begin() + _Off);
; 1331 : 		}
; 1332 : 
; 1333 : 	_Myt& erase(size_type _Off = 0)
; 1334 : 		{	// erase elements [_Off, ...)
; 1335 : 		if (this->_Mysize < _Off)
; 1336 : 			_Xran();	// _Off off end
; 1337 : 		_Eos(_Off);
; 1338 : 		return (*this);
; 1339 : 		}
; 1340 : 
; 1341 : 	_Myt& erase(size_type _Off, size_type _Count)
; 1342 : 		{	// erase elements [_Off, _Off + _Count)
; 1343 : 		if (this->_Mysize < _Off)
; 1344 : 			_Xran();	// _Off off end
; 1345 : 		if (this->_Mysize - _Off <= _Count)
; 1346 : 			_Eos(_Off);	// erase elements [_Off, ...)
; 1347 : 		else if (0 < _Count)
; 1348 : 			{	// move elements down
; 1349 : 			value_type *_Ptr = this->_Myptr() + _Off;
; 1350 : 			size_type _Newsize = this->_Mysize - _Count;
; 1351 : 			_Traits::move(_Ptr, _Ptr + _Count, _Newsize - _Off);
; 1352 : 			_Eos(_Newsize);
; 1353 : 			}
; 1354 : 		return (*this);
; 1355 : 		}
; 1356 : 
; 1357 : 	iterator erase(const_iterator _Where)
; 1358 : 		{	// erase element at _Where
; 1359 : 		size_type _Count = _Pdif(_Where, begin());
; 1360 : 		erase(_Count, 1);
; 1361 : 		return (_STRING_ITERATOR(this->_Myptr() + _Count));
; 1362 : 		}
; 1363 : 
; 1364 : 	iterator erase(const_iterator _First, const_iterator _Last)
; 1365 : 		{	// erase substring [_First, _Last)
; 1366 : 		_DEBUG_RANGE(_First, _Last);
; 1367 : 		size_type _Count = _Pdif(_First, begin());
; 1368 : 		erase(_Count, _Pdif(_Last, _First));
; 1369 : 		return (_STRING_ITERATOR(this->_Myptr() + _Count));
; 1370 : 		}
; 1371 : 
; 1372 : 	void clear() _NOEXCEPT
; 1373 : 		{	// erase all
; 1374 : 		_Eos(0);
; 1375 : 		}
; 1376 : 
; 1377 : 	_Myt& replace(size_type _Off, size_type _N0, const _Myt& _Right)
; 1378 : 		{	// replace [_Off, _Off + _N0) with _Right
; 1379 : 		return (replace(_Off, _N0, _Right, 0, npos));
; 1380 : 		}
; 1381 : 
; 1382 : 	_Myt& replace(size_type _Off,
; 1383 : 		size_type _N0, const _Myt& _Right, size_type _Roff, size_type _Count)
; 1384 : 		{	// replace [_Off, _Off + _N0) with _Right [_Roff, _Roff + _Count)
; 1385 : 		if (this->_Mysize < _Off || _Right.size() < _Roff)
; 1386 : 			_Xran();	// _Off or _Roff off end
; 1387 : 		if (this->_Mysize - _Off < _N0)
; 1388 : 			_N0 = this->_Mysize - _Off;	// trim _N0 to size
; 1389 : 		size_type _Num = _Right.size() - _Roff;
; 1390 : 		if (_Num < _Count)
; 1391 : 			_Count = _Num;	// trim _Count to size
; 1392 : 		if (npos - _Count <= this->_Mysize - _N0)
; 1393 : 			_Xlen();	// result too long
; 1394 : 
; 1395 : 		size_type _Nm = this->_Mysize - _N0 - _Off;	// length of kept tail
; 1396 : 		size_type _Newsize = this->_Mysize + _Count - _N0;
; 1397 : 		if (this->_Mysize < _Newsize)
; 1398 : 			_Grow(_Newsize);
; 1399 : 
; 1400 : 		if (this != &_Right)
; 1401 : 			{	// no overlap, just move down and copy in new stuff
; 1402 : 			_Traits::move(this->_Myptr() + _Off + _Count,
; 1403 : 				this->_Myptr() + _Off + _N0, _Nm);	// empty hole
; 1404 : 			_Traits::copy(this->_Myptr() + _Off,
; 1405 : 				_Right._Myptr() + _Roff, _Count);	// fill hole
; 1406 : 			}
; 1407 : 		else if (_Count <= _N0)
; 1408 : 			{	// hole doesn't get larger, just copy in substring
; 1409 : 			_Traits::move(this->_Myptr() + _Off,
; 1410 : 				this->_Myptr() + _Roff, _Count);	// fill hole
; 1411 : 			_Traits::move(this->_Myptr() + _Off + _Count,
; 1412 : 				this->_Myptr() + _Off + _N0, _Nm);	// move tail down
; 1413 : 			}
; 1414 : 		else if (_Roff <= _Off)
; 1415 : 			{	// hole gets larger, substring begins before hole
; 1416 : 			_Traits::move(this->_Myptr() + _Off + _Count,
; 1417 : 				this->_Myptr() + _Off + _N0, _Nm);	// move tail down
; 1418 : 			_Traits::move(this->_Myptr() + _Off,
; 1419 : 				this->_Myptr() + _Roff, _Count);	// fill hole
; 1420 : 			}
; 1421 : 		else if (_Off + _N0 <= _Roff)
; 1422 : 			{	// hole gets larger, substring begins after hole
; 1423 : 			_Traits::move(this->_Myptr() + _Off + _Count,
; 1424 : 				this->_Myptr() + _Off + _N0, _Nm);	// move tail down
; 1425 : 			_Traits::move(this->_Myptr() + _Off,
; 1426 : 				this->_Myptr() + (_Roff + _Count - _N0),
; 1427 : 				_Count);	// fill hole
; 1428 : 			}
; 1429 : 		else
; 1430 : 			{	// hole gets larger, substring begins in hole
; 1431 : 			_Traits::move(this->_Myptr() + _Off,
; 1432 : 				this->_Myptr() + _Roff, _N0);	// fill old hole
; 1433 : 			_Traits::move(this->_Myptr() + _Off + _Count,
; 1434 : 				this->_Myptr() + _Off + _N0, _Nm);	// move tail down
; 1435 : 			_Traits::move(this->_Myptr() + _Off + _N0,
; 1436 : 				this->_Myptr() + _Roff + _Count,
; 1437 : 				_Count - _N0);	// fill rest of new hole
; 1438 : 			}
; 1439 : 
; 1440 : 		_Eos(_Newsize);
; 1441 : 		return (*this);
; 1442 : 		}
; 1443 : 
; 1444 : 	_Myt& replace(size_type _Off,
; 1445 : 		size_type _N0, const _Elem *_Ptr, size_type _Count)
; 1446 : 		{	// replace [_Off, _Off + _N0) with [_Ptr, _Ptr + _Count)
; 1447 :  #if _ITERATOR_DEBUG_LEVEL == 2
; 1448 : 		if (_Count != 0)
; 1449 : 			_DEBUG_POINTER(_Ptr);
; 1450 :  #endif /* _ITERATOR_DEBUG_LEVEL == 2 */
; 1451 : 
; 1452 : 		if (_Inside(_Ptr))
; 1453 : 			return (replace(_Off, _N0, *this,
; 1454 : 				_Ptr - this->_Myptr(),
; 1455 : 				_Count));	// substring, replace carefully
; 1456 : 		if (this->_Mysize < _Off)
; 1457 : 			_Xran();	// _Off off end
; 1458 : 		if (this->_Mysize - _Off < _N0)
; 1459 : 			_N0 = this->_Mysize - _Off;	// trim _N0 to size
; 1460 : 		if (npos - _Count <= this->_Mysize - _N0)
; 1461 : 			_Xlen();	// result too long
; 1462 : 		size_type _Nm = this->_Mysize - _N0 - _Off;
; 1463 : 
; 1464 : 		if (_Count < _N0)
; 1465 : 			_Traits::move(this->_Myptr() + _Off + _Count,
; 1466 : 				this->_Myptr() + _Off + _N0,
; 1467 : 				_Nm);	// smaller hole, move tail up
; 1468 : 		size_type _Num;
; 1469 : 		if ((0 < _Count || 0 < _N0)
; 1470 : 			&& _Grow(_Num = this->_Mysize + _Count - _N0))
; 1471 : 			{	// make room and rearrange
; 1472 : 			if (_N0 < _Count)
; 1473 : 				_Traits::move(this->_Myptr() + _Off + _Count,
; 1474 : 					this->_Myptr() + _Off + _N0, _Nm);	// move tail down
; 1475 : 			_Traits::copy(this->_Myptr() + _Off, _Ptr, _Count);	// fill hole
; 1476 : 			_Eos(_Num);
; 1477 : 			}
; 1478 : 		return (*this);
; 1479 : 		}
; 1480 : 
; 1481 : 	_Myt& replace(size_type _Off, size_type _N0, const _Elem *_Ptr)
; 1482 : 		{	// replace [_Off, _Off + _N0) with [_Ptr, <null>)
; 1483 : 		_DEBUG_POINTER(_Ptr);
; 1484 : 		return (replace(_Off, _N0, _Ptr, _Traits::length(_Ptr)));
; 1485 : 		}
; 1486 : 
; 1487 : 	_Myt& replace(size_type _Off,
; 1488 : 		size_type _N0, size_type _Count, _Elem _Ch)
; 1489 : 		{	// replace [_Off, _Off + _N0) with _Count * _Ch
; 1490 : 		if (this->_Mysize < _Off)
; 1491 : 			_Xran();	// _Off off end
; 1492 : 		if (this->_Mysize - _Off < _N0)
; 1493 : 			_N0 = this->_Mysize - _Off;	// trim _N0 to size
; 1494 : 		if (npos - _Count <= this->_Mysize - _N0)
; 1495 : 			_Xlen();	// result too long
; 1496 : 		size_type _Nm = this->_Mysize - _N0 - _Off;
; 1497 : 
; 1498 : 		if (_Count < _N0)
; 1499 : 			_Traits::move(this->_Myptr() + _Off + _Count,
; 1500 : 				this->_Myptr() + _Off + _N0,
; 1501 : 				_Nm);	// smaller hole, move tail up
; 1502 : 		size_type _Num;
; 1503 : 		if ((0 < _Count || 0 < _N0)
; 1504 : 			&& _Grow(_Num = this->_Mysize + _Count - _N0))
; 1505 : 			{	// make room and rearrange
; 1506 : 			if (_N0 < _Count)
; 1507 : 				_Traits::move(this->_Myptr() + _Off + _Count,
; 1508 : 					this->_Myptr() + _Off + _N0, _Nm);	// move tail down
; 1509 : 			_Chassign(_Off, _Count, _Ch);	// fill hole
; 1510 : 			_Eos(_Num);
; 1511 : 			}
; 1512 : 		return (*this);
; 1513 : 		}
; 1514 : 
; 1515 : 	_Myt& replace(const_iterator _First, const_iterator _Last,
; 1516 : 		const _Myt& _Right)
; 1517 : 		{	// replace [_First, _Last) with _Right
; 1518 : 		return (replace(
; 1519 : 			_Pdif(_First, begin()), _Pdif(_Last, _First), _Right));
; 1520 : 		}
; 1521 : 
; 1522 : 	_Myt& replace(const_iterator _First, const_iterator _Last,
; 1523 : 		const _Elem *_Ptr, size_type _Count)
; 1524 : 		{	// replace [_First, _Last) with [_Ptr, _Ptr + _Count)
; 1525 : 		return (replace(
; 1526 : 			_Pdif(_First, begin()), _Pdif(_Last, _First), _Ptr, _Count));
; 1527 : 		}
; 1528 : 
; 1529 : 	_Myt& replace(const_iterator _First, const_iterator _Last,
; 1530 : 		const _Elem *_Ptr)
; 1531 : 		{	// replace [_First, _Last) with [_Ptr, <null>)
; 1532 : 		return (replace(
; 1533 : 			_Pdif(_First, begin()), _Pdif(_Last, _First), _Ptr));
; 1534 : 		}
; 1535 : 
; 1536 : 	_Myt& replace(const_iterator _First, const_iterator _Last,
; 1537 : 		size_type _Count, _Elem _Ch)
; 1538 : 		{	// replace [_First, _Last) with _Count * _Ch
; 1539 : 		return (replace(
; 1540 : 			_Pdif(_First, begin()), _Pdif(_Last, _First), _Count, _Ch));
; 1541 : 		}
; 1542 : 
; 1543 : 	template<class _Iter>
; 1544 : 		typename enable_if<_Is_iterator<_Iter>::value,
; 1545 : 			_Myt&>::type
; 1546 : 		replace(const_iterator _First, const_iterator _Last,
; 1547 : 			_Iter _First2, _Iter _Last2)
; 1548 : 		{	// replace [_First, _Last) with [_First2, _Last2), input iterators
; 1549 : 		_Myt _Right(_First2, _Last2);
; 1550 : 		replace(_First, _Last, _Right);
; 1551 : 		return (*this);
; 1552 : 		}
; 1553 : 
; 1554 : 	_Myt& replace(const_iterator _First, const_iterator _Last,
; 1555 : 		const_pointer _First2, const_pointer _Last2)
; 1556 : 		{	// replace [_First, _Last) with [_First2, _Last2), const pointers
; 1557 : 		if (_First2 == _Last2)
; 1558 : 			erase(_Pdif(_First, begin()), _Pdif(_Last, _First));
; 1559 : 		else
; 1560 : 			replace(_Pdif(_First, begin()), _Pdif(_Last, _First),
; 1561 : 				&*_First2, _Last2 - _First2);
; 1562 : 		return (*this);
; 1563 : 		}
; 1564 : 
; 1565 : 	_Myt& replace(const_iterator _First, const_iterator _Last,
; 1566 : 		pointer _First2, pointer _Last2)
; 1567 : 		{	// replace [_First, _Last) with [_First2, _Last2), const pointers
; 1568 : 		if (_First2 == _Last2)
; 1569 : 			erase(_Pdif(_First, begin()), _Pdif(_Last, _First));
; 1570 : 		else
; 1571 : 			replace(_Pdif(_First, begin()), _Pdif(_Last, _First),
; 1572 : 				&*_First2, _Last2 - _First2);
; 1573 : 		return (*this);
; 1574 : 		}
; 1575 : 
; 1576 : 	_Myt& replace(const_iterator _First, const_iterator _Last,
; 1577 : 		const_iterator _First2, const_iterator _Last2)
; 1578 : 		{	// replace [_First, _Last) with [_First2, _Last2), const_iterators
; 1579 : 		if (_First2 == _Last2)
; 1580 : 			erase(_Pdif(_First, begin()), _Pdif(_Last, _First));
; 1581 : 		else
; 1582 : 			replace(_Pdif(_First, begin()), _Pdif(_Last, _First),
; 1583 : 				&*_First2, _Last2 - _First2);
; 1584 : 		return (*this);
; 1585 : 		}
; 1586 : 
; 1587 : 	_Myt& replace(const_iterator _First, const_iterator _Last,
; 1588 : 		iterator _First2, iterator _Last2)
; 1589 : 		{	// replace [_First, _Last) with [_First2, _Last2), const_iterators
; 1590 : 		if (_First2 == _Last2)
; 1591 : 			erase(_Pdif(_First, begin()), _Pdif(_Last, _First));
; 1592 : 		else
; 1593 : 			replace(_Pdif(_First, begin()), _Pdif(_Last, _First),
; 1594 : 				&*_First2, _Last2 - _First2);
; 1595 : 		return (*this);
; 1596 : 		}
; 1597 : 
; 1598 : 	iterator begin() _NOEXCEPT
; 1599 : 		{	// return iterator for beginning of mutable sequence
; 1600 : 		return (_STRING_ITERATOR(this->_Myptr()));
; 1601 : 		}
; 1602 : 
; 1603 : 	const_iterator begin() const _NOEXCEPT
; 1604 : 		{	// return iterator for beginning of nonmutable sequence
; 1605 : 		return (_STRING_CONST_ITERATOR(this->_Myptr()));
; 1606 : 		}
; 1607 : 
; 1608 : 	iterator end() _NOEXCEPT
; 1609 : 		{	// return iterator for end of mutable sequence
; 1610 : 		return (_STRING_ITERATOR(this->_Myptr() + this->_Mysize));
; 1611 : 		}
; 1612 : 
; 1613 : 	const_iterator end() const _NOEXCEPT
; 1614 : 		{	// return iterator for end of nonmutable sequence
; 1615 : 		return (_STRING_CONST_ITERATOR(this->_Myptr() + this->_Mysize));
; 1616 : 		}
; 1617 : 
; 1618 : 	reverse_iterator rbegin() _NOEXCEPT
; 1619 : 		{	// return iterator for beginning of reversed mutable sequence
; 1620 : 		return (reverse_iterator(end()));
; 1621 : 		}
; 1622 : 
; 1623 : 	const_reverse_iterator rbegin() const _NOEXCEPT
; 1624 : 		{	// return iterator for beginning of reversed nonmutable sequence
; 1625 : 		return (const_reverse_iterator(end()));
; 1626 : 		}
; 1627 : 
; 1628 : 	reverse_iterator rend() _NOEXCEPT
; 1629 : 		{	// return iterator for end of reversed mutable sequence
; 1630 : 		return (reverse_iterator(begin()));
; 1631 : 		}
; 1632 : 
; 1633 : 	const_reverse_iterator rend() const _NOEXCEPT
; 1634 : 		{	// return iterator for end of reversed nonmutable sequence
; 1635 : 		return (const_reverse_iterator(begin()));
; 1636 : 		}
; 1637 : 
; 1638 : 	const_iterator cbegin() const _NOEXCEPT
; 1639 : 		{	// return iterator for beginning of nonmutable sequence
; 1640 : 		return (((const _Myt *)this)->begin());
; 1641 : 		}
; 1642 : 
; 1643 : 	const_iterator cend() const _NOEXCEPT
; 1644 : 		{	// return iterator for end of nonmutable sequence
; 1645 : 		return (((const _Myt *)this)->end());
; 1646 : 		}
; 1647 : 
; 1648 : 	const_reverse_iterator crbegin() const _NOEXCEPT
; 1649 : 		{	// return iterator for beginning of reversed nonmutable sequence
; 1650 : 		return (((const _Myt *)this)->rbegin());
; 1651 : 		}
; 1652 : 
; 1653 : 	const_reverse_iterator crend() const _NOEXCEPT
; 1654 : 		{	// return iterator for end of reversed nonmutable sequence
; 1655 : 		return (((const _Myt *)this)->rend());
; 1656 : 		}
; 1657 : 
; 1658 : 	void shrink_to_fit()
; 1659 : 		{	// reduce capacity
; 1660 : 		if ((size() | this->_ALLOC_MASK) < capacity())
; 1661 : 			{	// worth shrinking, do it
; 1662 : 			_Myt _Tmp(*this);
; 1663 : 			swap(_Tmp);
; 1664 : 			}
; 1665 : 		}
; 1666 : 
; 1667 : 	reference at(size_type _Off)
; 1668 : 		{	// subscript mutable sequence with checking
; 1669 : 		if (this->_Mysize <= _Off)
; 1670 : 			_Xran();	// _Off off end
; 1671 : 		return (this->_Myptr()[_Off]);
; 1672 : 		}
; 1673 : 
; 1674 : 	const_reference at(size_type _Off) const
; 1675 : 		{	// subscript nonmutable sequence with checking
; 1676 : 		if (this->_Mysize <= _Off)
; 1677 : 			_Xran();	// _Off off end
; 1678 : 		return (this->_Myptr()[_Off]);
; 1679 : 		}
; 1680 : 
; 1681 : 	reference operator[](size_type _Off)
; 1682 : 		{	// subscript mutable sequence
; 1683 :  #if _ITERATOR_DEBUG_LEVEL == 2
; 1684 : 		if (this->_Mysize < _Off)	// sic
; 1685 : 			_DEBUG_ERROR("string subscript out of range");
; 1686 : 
; 1687 :  #elif _ITERATOR_DEBUG_LEVEL == 1
; 1688 : 		_SCL_SECURE_VALIDATE_RANGE(_Off <= this->_Mysize);	// sic
; 1689 :  #endif /* _ITERATOR_DEBUG_LEVEL == 2 */
; 1690 : 
; 1691 : 		return (this->_Myptr()[_Off]);
; 1692 : 		}
; 1693 : 
; 1694 : 	const_reference operator[](size_type _Off) const
; 1695 : 		{	// subscript nonmutable sequence
; 1696 :  #if _ITERATOR_DEBUG_LEVEL == 2
; 1697 : 		if (this->_Mysize < _Off)	// sic
; 1698 : 			_DEBUG_ERROR("string subscript out of range");
; 1699 : 
; 1700 :  #elif _ITERATOR_DEBUG_LEVEL == 1
; 1701 : 		_SCL_SECURE_VALIDATE_RANGE(_Off <= this->_Mysize);	// sic
; 1702 :  #endif /* _ITERATOR_DEBUG_LEVEL == 2 */
; 1703 : 
; 1704 : 		return (this->_Myptr()[_Off]);
; 1705 : 		}
; 1706 : 
; 1707 : 	void push_back(_Elem _Ch)
; 1708 : 		{	// insert element at end
; 1709 : 		insert(end(), _Ch);
; 1710 : 		}
; 1711 : 
; 1712 : 	void pop_back()
; 1713 : 		{	// erase element at end
; 1714 : 		erase(this->_Mysize - 1);	// throws if _Mysize == 0
; 1715 : 		}
; 1716 : 
; 1717 : 	reference front()
; 1718 : 		{	// return first element of mutable sequence
; 1719 : 		return (*begin());
; 1720 : 		}
; 1721 : 
; 1722 : 	const_reference front() const
; 1723 : 		{	// return first element of nonmutable sequence
; 1724 : 		return (*begin());
; 1725 : 		}
; 1726 : 
; 1727 : 	reference back()
; 1728 : 		{	// return last element of mutable sequence
; 1729 : 		return (*(end() - 1));
; 1730 : 		}
; 1731 : 
; 1732 : 	const_reference back() const
; 1733 : 		{	// return last element of nonmutable sequence
; 1734 : 		return (*(end() - 1));
; 1735 : 		}
; 1736 : 
; 1737 : 	const _Elem *c_str() const _NOEXCEPT
; 1738 : 		{	// return pointer to null-terminated nonmutable array
; 1739 : 		return (this->_Myptr());
; 1740 : 		}
; 1741 : 
; 1742 : 	const _Elem *data() const _NOEXCEPT
; 1743 : 		{	// return pointer to nonmutable array
; 1744 : 		return (c_str());
; 1745 : 		}
; 1746 : 
; 1747 : 	size_type length() const _NOEXCEPT
; 1748 : 		{	// return length of sequence
; 1749 : 		return (this->_Mysize);
; 1750 : 		}
; 1751 : 
; 1752 : 	size_type size() const _NOEXCEPT
; 1753 : 		{	// return length of sequence
; 1754 : 		return (this->_Mysize);
; 1755 : 		}
; 1756 : 
; 1757 : 	size_type max_size() const _NOEXCEPT
; 1758 : 		{	// return maximum possible length of sequence
; 1759 : 		size_type _Num = this->_Getal().max_size();
; 1760 : 		return (_Num <= 1 ? 1 : _Num - 1);
; 1761 : 		}
; 1762 : 
; 1763 : 	void resize(size_type _Newsize)
; 1764 : 		{	// determine new length, padding with null elements as needed
; 1765 : 		resize(_Newsize, _Elem());
; 1766 : 		}
; 1767 : 
; 1768 : 	void resize(size_type _Newsize, _Elem _Ch)
; 1769 : 		{	// determine new length, padding with _Ch elements as needed
; 1770 : 		if (_Newsize <= this->_Mysize)
; 1771 : 			_Eos(_Newsize);
; 1772 : 		else
; 1773 : 			append(_Newsize - this->_Mysize, _Ch);
; 1774 : 		}
; 1775 : 
; 1776 : 	size_type capacity() const _NOEXCEPT
; 1777 : 		{	// return current length of allocated storage
; 1778 : 		return (this->_Myres);
; 1779 : 		}
; 1780 : 
; 1781 : 	void reserve(size_type _Newcap = 0)
; 1782 : 		{	// determine new minimum length of allocated storage
; 1783 : 		if (this->_Mysize <= _Newcap && this->_Myres != _Newcap)
; 1784 : 			{	// change reservation
; 1785 : 			size_type _Size = this->_Mysize;
; 1786 : 			if (_Grow(_Newcap, true))
; 1787 : 				_Eos(_Size);
; 1788 : 			}
; 1789 : 		}
; 1790 : 
; 1791 : 	bool empty() const _NOEXCEPT
; 1792 : 		{	// test if sequence is empty
; 1793 : 		return (this->_Mysize == 0);
; 1794 : 		}
; 1795 : 
; 1796 : 	_SCL_INSECURE_DEPRECATE
; 1797 : 
; 1798 : 	size_type copy(_Elem *_Ptr,
; 1799 : 		size_type _Count, size_type _Off = 0) const
; 1800 : 		{	// copy [_Off, _Off + _Count) to [_Ptr, _Ptr + _Count)
; 1801 :  #if _ITERATOR_DEBUG_LEVEL == 2
; 1802 : 		if (_Count != 0)
; 1803 : 			_DEBUG_POINTER(_Ptr);
; 1804 :  #endif /* _ITERATOR_DEBUG_LEVEL == 2 */
; 1805 : 
; 1806 : 		if (this->_Mysize < _Off)
; 1807 : 			_Xran();	// _Off off end
; 1808 : 		if (this->_Mysize - _Off < _Count)
; 1809 : 			_Count = this->_Mysize - _Off;
; 1810 : 		_Traits::copy(_Ptr, this->_Myptr() + _Off, _Count);
; 1811 : 		return (_Count);
; 1812 : 		}
; 1813 : 
; 1814 : 	size_type _Copy_s(_Elem *_Dest, size_type _Dest_size,
; 1815 : 		size_type _Count, size_type _Off = 0) const
; 1816 : 		{	// copy [_Off, _Off + _Count) to [_Dest, _Dest + _Count)
; 1817 :  #if _ITERATOR_DEBUG_LEVEL == 2
; 1818 : 		if (_Count != 0)
; 1819 : 			_DEBUG_POINTER(_Dest);
; 1820 :  #endif /* _ITERATOR_DEBUG_LEVEL == 2 */
; 1821 : 
; 1822 : 		if (this->_Mysize < _Off)
; 1823 : 			_Xran();	// _Off off end
; 1824 : 		if (this->_Mysize - _Off < _Count)
; 1825 : 			_Count = this->_Mysize - _Off;
; 1826 : 		_Traits::_Copy_s(_Dest, _Dest_size, this->_Myptr() + _Off, _Count);
; 1827 : 		return (_Count);
; 1828 : 		}
; 1829 : 
; 1830 : 	void _Swap_bx(_Myt& _Right)
; 1831 : 		{	// exchange _Bx with _Right._Bx
; 1832 : 		if (this->_BUF_SIZE <= this->_Myres)
; 1833 : 			if (this->_BUF_SIZE <= _Right._Myres)
; 1834 : 				_Swap_adl(this->_Bx._Ptr, _Right._Bx._Ptr);
; 1835 : 			else
; 1836 : 				{	// swap large with small
; 1837 : 				pointer _Ptr = this->_Bx._Ptr;
; 1838 : 				this->_Getal().destroy(&this->_Bx._Ptr);
; 1839 : 				_Traits::copy(this->_Bx._Buf,
; 1840 : 					_Right._Bx._Buf, _Right._Mysize + 1);
; 1841 : 				this->_Getal().construct(&_Right._Bx._Ptr, _Ptr);
; 1842 : 				}
; 1843 : 		else
; 1844 : 			if (_Right._Myres < this->_BUF_SIZE)
; 1845 : 				_STD swap(this->_Bx._Buf, _Right._Bx._Buf);
; 1846 : 			else
; 1847 : 				{	// swap small with large
; 1848 : 				pointer _Ptr = _Right._Bx._Ptr;
; 1849 : 				this->_Getal().destroy(&_Right._Bx._Ptr);
; 1850 : 				_Traits::copy(_Right._Bx._Buf,
; 1851 : 					this->_Bx._Buf, this->_Mysize + 1);
; 1852 : 				this->_Getal().construct(&this->_Bx._Ptr, _Ptr);
; 1853 : 				}
; 1854 : 		}
; 1855 : 
; 1856 : 	void swap(_Myt& _Right)
; 1857 : 		{	// exchange contents with _Right
; 1858 : 		if (this == &_Right)
; 1859 : 			;	// same object, do nothing
; 1860 : 		else if (this->_Getal() == _Right._Getal())
; 1861 : 			{	// same allocator, swap control information
; 1862 : 			this->_Swap_all(_Right);
; 1863 : 			_Swap_bx(_Right);
; 1864 : 			_STD swap(this->_Mysize, _Right._Mysize);
; 1865 : 			_STD swap(this->_Myres, _Right._Myres);
; 1866 : 			}
; 1867 : 
; 1868 : 		else if (_Alty::propagate_on_container_swap::value)
; 1869 : 			{	// swap allocators and control information
; 1870 : 			this->_Swap_alloc(_Right);
; 1871 : 			_Swap_bx(_Right);
; 1872 : 			_STD swap(this->_Bx, _Right._Bx);	// pointer bitwise copyable?
; 1873 : 			_STD swap(this->_Mysize, _Right._Mysize);
; 1874 : 			_STD swap(this->_Myres, _Right._Myres);
; 1875 : 			}
; 1876 : 
; 1877 : 		else
; 1878 : 			{	// different allocator, do multiple assigns
; 1879 : 			_Myt _Tmp = *this;
; 1880 : 
; 1881 : 			*this = _Right;
; 1882 : 			_Right = _Tmp;
; 1883 : 			}
; 1884 : 		}
; 1885 : 
; 1886 : 	size_type find(const _Myt& _Right, size_type _Off = 0) const _NOEXCEPT
; 1887 : 		{	// look for _Right beginning at or after _Off
; 1888 : 		return (find(_Right._Myptr(), _Off, _Right.size()));
; 1889 : 		}
; 1890 : 
; 1891 : 	size_type find(const _Elem *_Ptr,
; 1892 : 		size_type _Off, size_type _Count) const
; 1893 : 		{	// look for [_Ptr, _Ptr + _Count) beginning at or after _Off
; 1894 :  #if _ITERATOR_DEBUG_LEVEL == 2
; 1895 : 		if (_Count != 0)
; 1896 : 			_DEBUG_POINTER(_Ptr);
; 1897 :  #endif /* _ITERATOR_DEBUG_LEVEL == 2 */
; 1898 : 
; 1899 : 		if (_Count == 0 && _Off <= this->_Mysize)
; 1900 : 			return (_Off);	// null string always matches (if inside string)
; 1901 : 
; 1902 : 		size_type _Nm;
; 1903 : 		if (_Off < this->_Mysize && _Count <= (_Nm = this->_Mysize - _Off))
; 1904 : 			{	// room for match, look for it
; 1905 : 			const _Elem *_Uptr, *_Vptr;
; 1906 : 			for (_Nm -= _Count - 1, _Vptr = this->_Myptr() + _Off;
; 1907 : 				(_Uptr = _Traits::find(_Vptr, _Nm, *_Ptr)) != 0;
; 1908 : 				_Nm -= _Uptr - _Vptr + 1, _Vptr = _Uptr + 1)
; 1909 : 				if (_Traits::compare(_Uptr, _Ptr, _Count) == 0)
; 1910 : 					return (_Uptr - this->_Myptr());	// found a match
; 1911 : 			}
; 1912 : 
; 1913 : 		return (npos);	// no match
; 1914 : 		}
; 1915 : 
; 1916 : 	size_type find(const _Elem *_Ptr, size_type _Off = 0) const
; 1917 : 		{	// look for [_Ptr, <null>) beginning at or after _Off
; 1918 : 		_DEBUG_POINTER(_Ptr);
; 1919 : 		return (find(_Ptr, _Off, _Traits::length(_Ptr)));
; 1920 : 		}
; 1921 : 
; 1922 : 	size_type find(_Elem _Ch, size_type _Off = 0) const
; 1923 : 		{	// look for _Ch at or after _Off
; 1924 : 		return (find((const _Elem *)&_Ch, _Off, 1));
; 1925 : 		}
; 1926 : 
; 1927 : 	size_type rfind(const _Myt& _Right, size_type _Off = npos) const _NOEXCEPT
; 1928 : 		{	// look for _Right beginning before _Off
; 1929 : 		return (rfind(_Right._Myptr(), _Off, _Right.size()));
; 1930 : 		}
; 1931 : 
; 1932 : 	size_type rfind(const _Elem *_Ptr,
; 1933 : 		size_type _Off, size_type _Count) const
; 1934 : 		{	// look for [_Ptr, _Ptr + _Count) beginning before _Off
; 1935 :  #if _ITERATOR_DEBUG_LEVEL == 2
; 1936 : 		if (_Count != 0)
; 1937 : 			_DEBUG_POINTER(_Ptr);
; 1938 :  #endif /* _ITERATOR_DEBUG_LEVEL == 2 */
; 1939 : 
; 1940 : 		if (_Count == 0)
; 1941 : 			return (_Off < this->_Mysize ? _Off
; 1942 : 				: this->_Mysize);	// null always matches
; 1943 : 		if (_Count <= this->_Mysize)
; 1944 : 			{	// room for match, look for it
; 1945 : 			const _Elem *_Uptr = this->_Myptr() +
; 1946 : 				(_Off < this->_Mysize - _Count ? _Off
; 1947 : 					: this->_Mysize - _Count);
; 1948 : 			for (; ; --_Uptr)
; 1949 : 				if (_Traits::eq(*_Uptr, *_Ptr)
; 1950 : 					&& _Traits::compare(_Uptr, _Ptr, _Count) == 0)
; 1951 : 					return (_Uptr - this->_Myptr());	// found a match
; 1952 : 				else if (_Uptr == this->_Myptr())
; 1953 : 					break;	// at beginning, no more chance for match
; 1954 : 			}
; 1955 : 
; 1956 : 		return (npos);	// no match
; 1957 : 		}
; 1958 : 
; 1959 : 	size_type rfind(const _Elem *_Ptr, size_type _Off = npos) const
; 1960 : 		{	// look for [_Ptr, <null>) beginning before _Off
; 1961 : 		_DEBUG_POINTER(_Ptr);
; 1962 : 		return (rfind(_Ptr, _Off, _Traits::length(_Ptr)));
; 1963 : 		}
; 1964 : 
; 1965 : 	size_type rfind(_Elem _Ch, size_type _Off = npos) const
; 1966 : 		{	// look for _Ch before _Off
; 1967 : 		return (rfind((const _Elem *)&_Ch, _Off, 1));
; 1968 : 		}
; 1969 : 
; 1970 : 	size_type find_first_of(const _Myt& _Right,
; 1971 : 		size_type _Off = 0) const _NOEXCEPT
; 1972 : 		{	// look for one of _Right at or after _Off
; 1973 : 		return (find_first_of(_Right._Myptr(), _Off, _Right.size()));
; 1974 : 		}
; 1975 : 
; 1976 : 	size_type find_first_of(const _Elem *_Ptr,
; 1977 : 		size_type _Off, size_type _Count) const
; 1978 : 		{	// look for one of [_Ptr, _Ptr + _Count) at or after _Off
; 1979 :  #if _ITERATOR_DEBUG_LEVEL == 2
; 1980 : 		if (_Count != 0)
; 1981 : 			_DEBUG_POINTER(_Ptr);
; 1982 :  #endif /* _ITERATOR_DEBUG_LEVEL == 2 */
; 1983 : 
; 1984 : 		if (0 < _Count && _Off < this->_Mysize)
; 1985 : 			{	// room for match, look for it
; 1986 : 			const _Elem *const _Vptr = this->_Myptr() + this->_Mysize;
; 1987 : 			for (const _Elem *_Uptr = this->_Myptr() + _Off;
; 1988 : 				_Uptr < _Vptr; ++_Uptr)
; 1989 : 				if (_Traits::find(_Ptr, _Count, *_Uptr) != 0)
; 1990 : 					return (_Uptr - this->_Myptr());	// found a match
; 1991 : 			}
; 1992 : 
; 1993 : 		return (npos);	// no match
; 1994 : 		}
; 1995 : 
; 1996 : 	size_type find_first_of(const _Elem *_Ptr,
; 1997 : 		size_type _Off = 0) const
; 1998 : 		{	// look for one of [_Ptr, <null>) at or after _Off
; 1999 : 		_DEBUG_POINTER(_Ptr);
; 2000 : 		return (find_first_of(_Ptr, _Off, _Traits::length(_Ptr)));
; 2001 : 		}
; 2002 : 
; 2003 : 	size_type find_first_of(_Elem _Ch,
; 2004 : 		size_type _Off = 0) const
; 2005 : 		{	// look for _Ch at or after _Off
; 2006 : 		return (find((const _Elem *)&_Ch, _Off, 1));
; 2007 : 		}
; 2008 : 
; 2009 : 	size_type find_last_of(const _Myt& _Right,
; 2010 : 		size_type _Off = npos) const _NOEXCEPT
; 2011 : 		{	// look for one of _Right before _Off
; 2012 : 		return (find_last_of(_Right._Myptr(), _Off, _Right.size()));
; 2013 : 		}
; 2014 : 
; 2015 : 	size_type find_last_of(const _Elem *_Ptr,
; 2016 : 		size_type _Off, size_type _Count) const
; 2017 : 		{	// look for one of [_Ptr, _Ptr + _Count) before _Off
; 2018 :  #if _ITERATOR_DEBUG_LEVEL == 2
; 2019 : 		if (_Count != 0)
; 2020 : 			_DEBUG_POINTER(_Ptr);
; 2021 :  #endif /* _ITERATOR_DEBUG_LEVEL == 2 */
; 2022 : 
; 2023 : 		if (0 < _Count && 0 < this->_Mysize)
; 2024 : 			{	// worth searching, do it
; 2025 : 			const _Elem *_Uptr = this->_Myptr()
; 2026 : 				+ (_Off < this->_Mysize ? _Off : this->_Mysize - 1);
; 2027 : 			for (; ; --_Uptr)
; 2028 : 				if (_Traits::find(_Ptr, _Count, *_Uptr) != 0)
; 2029 : 					return (_Uptr - this->_Myptr());	// found a match
; 2030 : 				else if (_Uptr == this->_Myptr())
; 2031 : 					break;	// at beginning, no more chance for match
; 2032 : 			}
; 2033 : 
; 2034 : 		return (npos);	// no match
; 2035 : 		}
; 2036 : 
; 2037 : 	size_type find_last_of(const _Elem *_Ptr,
; 2038 : 		size_type _Off = npos) const
; 2039 : 		{	// look for one of [_Ptr, <null>) before _Off
; 2040 : 		_DEBUG_POINTER(_Ptr);
; 2041 : 		return (find_last_of(_Ptr, _Off, _Traits::length(_Ptr)));
; 2042 : 		}
; 2043 : 
; 2044 : 	size_type find_last_of(_Elem _Ch,
; 2045 : 		size_type _Off = npos) const
; 2046 : 		{	// look for _Ch before _Off
; 2047 : 		return (rfind((const _Elem *)&_Ch, _Off, 1));
; 2048 : 		}
; 2049 : 
; 2050 : 	size_type find_first_not_of(const _Myt& _Right,
; 2051 : 		size_type _Off = 0) const _NOEXCEPT
; 2052 : 		{	// look for none of _Right at or after _Off
; 2053 : 		return (find_first_not_of(_Right._Myptr(), _Off,
; 2054 : 			_Right.size()));
; 2055 : 		}
; 2056 : 
; 2057 : 	size_type find_first_not_of(const _Elem *_Ptr,
; 2058 : 		size_type _Off, size_type _Count) const
; 2059 : 		{	// look for none of [_Ptr, _Ptr + _Count) at or after _Off
; 2060 :  #if _ITERATOR_DEBUG_LEVEL == 2
; 2061 : 		if (_Count != 0)
; 2062 : 			_DEBUG_POINTER(_Ptr);
; 2063 :  #endif /* _ITERATOR_DEBUG_LEVEL == 2 */
; 2064 : 
; 2065 : 		if (_Off < this->_Mysize)
; 2066 : 			{	// room for match, look for it
; 2067 : 			const _Elem *const _Vptr = this->_Myptr() + this->_Mysize;
; 2068 : 			for (const _Elem *_Uptr = this->_Myptr() + _Off;
; 2069 : 				_Uptr < _Vptr; ++_Uptr)
; 2070 : 				if (_Traits::find(_Ptr, _Count, *_Uptr) == 0)
; 2071 : 					return (_Uptr - this->_Myptr());
; 2072 : 			}
; 2073 : 		return (npos);
; 2074 : 		}
; 2075 : 
; 2076 : 	size_type find_first_not_of(const _Elem *_Ptr,
; 2077 : 		size_type _Off = 0) const
; 2078 : 		{	// look for one of [_Ptr, <null>) at or after _Off
; 2079 : 		_DEBUG_POINTER(_Ptr);
; 2080 : 		return (find_first_not_of(_Ptr, _Off, _Traits::length(_Ptr)));
; 2081 : 		}
; 2082 : 
; 2083 : 	size_type find_first_not_of(_Elem _Ch,
; 2084 : 		size_type _Off = 0) const
; 2085 : 		{	// look for non _Ch at or after _Off
; 2086 : 		return (find_first_not_of((const _Elem *)&_Ch, _Off, 1));
; 2087 : 		}
; 2088 : 
; 2089 : 	size_type find_last_not_of(const _Myt& _Right,
; 2090 : 		size_type _Off = npos) const _NOEXCEPT
; 2091 : 		{	// look for none of _Right before _Off
; 2092 : 		return (find_last_not_of(_Right._Myptr(), _Off, _Right.size()));
; 2093 : 		}
; 2094 : 
; 2095 : 	size_type find_last_not_of(const _Elem *_Ptr,
; 2096 : 		size_type _Off, size_type _Count) const
; 2097 : 		{	// look for none of [_Ptr, _Ptr + _Count) before _Off
; 2098 :  #if _ITERATOR_DEBUG_LEVEL == 2
; 2099 : 		if (_Count != 0)
; 2100 : 			_DEBUG_POINTER(_Ptr);
; 2101 :  #endif /* _ITERATOR_DEBUG_LEVEL == 2 */
; 2102 : 
; 2103 : 		if (0 < this->_Mysize)
; 2104 : 			{	// worth searching, do it
; 2105 : 			const _Elem *_Uptr = this->_Myptr()
; 2106 : 				+ (_Off < this->_Mysize ? _Off : this->_Mysize - 1);
; 2107 : 			for (; ; --_Uptr)
; 2108 : 				if (_Traits::find(_Ptr, _Count, *_Uptr) == 0)
; 2109 : 					return (_Uptr - this->_Myptr());
; 2110 : 				else if (_Uptr == this->_Myptr())
; 2111 : 					break;
; 2112 : 			}
; 2113 : 		return (npos);
; 2114 : 		}
; 2115 : 
; 2116 : 	size_type find_last_not_of(const _Elem *_Ptr,
; 2117 : 		size_type _Off = npos) const
; 2118 : 		{	// look for none of [_Ptr, <null>) before _Off
; 2119 : 		_DEBUG_POINTER(_Ptr);
; 2120 : 		return (find_last_not_of(_Ptr, _Off, _Traits::length(_Ptr)));
; 2121 : 		}
; 2122 : 
; 2123 : 	size_type find_last_not_of(_Elem _Ch,
; 2124 : 		size_type _Off = npos) const
; 2125 : 		{	// look for non _Ch before _Off
; 2126 : 		return (find_last_not_of((const _Elem *)&_Ch, _Off, 1));
; 2127 : 		}
; 2128 : 
; 2129 : 	_Myt substr(size_type _Off = 0, size_type _Count = npos) const
; 2130 : 		{	// return [_Off, _Off + _Count) as new string
; 2131 : 		return (_Myt(*this, _Off, _Count, get_allocator()));
; 2132 : 		}
; 2133 : 
; 2134 : 	int compare(const _Myt& _Right) const _NOEXCEPT
; 2135 : 		{	// compare [0, _Mysize) with _Right
; 2136 : 		return (compare(0, this->_Mysize, _Right._Myptr(), _Right.size()));
; 2137 : 		}
; 2138 : 
; 2139 : 	int compare(size_type _Off, size_type _N0,
; 2140 : 		const _Myt& _Right) const
; 2141 : 		{	// compare [_Off, _Off + _N0) with _Right
; 2142 : 		return (compare(_Off, _N0, _Right, 0, npos));
; 2143 : 		}
; 2144 : 
; 2145 : 	int compare(size_type _Off,
; 2146 : 		size_type _N0, const _Myt& _Right,
; 2147 : 		size_type _Roff, size_type _Count) const
; 2148 : 		{	// compare [_Off, _Off + _N0) with _Right [_Roff, _Roff + _Count)
; 2149 : 		if (_Right.size() < _Roff)
; 2150 : 			_Xran();	// _Off off end
; 2151 : 		if (_Right._Mysize - _Roff < _Count)
; 2152 : 			_Count = _Right._Mysize - _Roff;	// trim _Count to size
; 2153 : 		return (compare(_Off, _N0, _Right._Myptr() + _Roff, _Count));
; 2154 : 		}
; 2155 : 
; 2156 : 	int compare(const _Elem *_Ptr) const
; 2157 : 		{	// compare [0, _Mysize) with [_Ptr, <null>)
; 2158 : 		_DEBUG_POINTER(_Ptr);
; 2159 : 		return (compare(0, this->_Mysize, _Ptr, _Traits::length(_Ptr)));
; 2160 : 		}
; 2161 : 
; 2162 : 	int compare(size_type _Off, size_type _N0, const _Elem *_Ptr) const
; 2163 : 		{	// compare [_Off, _Off + _N0) with [_Ptr, <null>)
; 2164 : 		_DEBUG_POINTER(_Ptr);
; 2165 : 		return (compare(_Off, _N0, _Ptr, _Traits::length(_Ptr)));
; 2166 : 		}
; 2167 : 
; 2168 : 	int compare(size_type _Off,
; 2169 : 		size_type _N0, const _Elem *_Ptr, size_type _Count) const
; 2170 : 		{	// compare [_Off, _Off + _N0) with [_Ptr, _Ptr + _Count)
; 2171 :  #if _ITERATOR_DEBUG_LEVEL == 2
; 2172 : 		if (_Count != 0)
; 2173 : 			_DEBUG_POINTER(_Ptr);
; 2174 :  #endif /* _ITERATOR_DEBUG_LEVEL == 2 */
; 2175 : 
; 2176 : 		if (this->_Mysize < _Off)
; 2177 : 			_Xran();	// _Off off end
; 2178 : 		if (this->_Mysize - _Off < _N0)
; 2179 : 			_N0 = this->_Mysize - _Off;	// trim _N0 to size
; 2180 : 
; 2181 : 		size_type _Ans = _Traits::compare(this->_Myptr() + _Off, _Ptr,
; 2182 : 			_N0 < _Count ? _N0 : _Count);
; 2183 : 		return (_Ans != 0 ? (int)_Ans : _N0 < _Count ? -1
; 2184 : 			: _N0 == _Count ? 0 : +1);
; 2185 : 		}
; 2186 : 
; 2187 : 	allocator_type get_allocator() const _NOEXCEPT
; 2188 : 		{	// return allocator object for values
; 2189 : 		return (this->_Getal());
; 2190 : 		}
; 2191 : 
; 2192 : 	void _Chassign(size_type _Off, size_type _Count, _Elem _Ch)
; 2193 : 		{	// assign _Count copies of _Ch beginning at _Off
; 2194 : 		if (_Count == 1)
; 2195 : 			_Traits::assign(*(this->_Myptr() + _Off), _Ch);
; 2196 : 		else
; 2197 : 			_Traits::assign(this->_Myptr() + _Off, _Count, _Ch);
; 2198 : 		}
; 2199 : 
; 2200 : 	void _Copy(size_type _Newsize, size_type _Oldlen)
; 2201 : 		{	// copy _Oldlen elements to newly allocated buffer
; 2202 : 		size_type _Newres = _Newsize | this->_ALLOC_MASK;
; 2203 : 		if (max_size() < _Newres)
; 2204 : 			_Newres = _Newsize;	// undo roundup if too big
; 2205 : 		else if (this->_Myres / 2 <= _Newres / 3)
; 2206 : 			;
; 2207 : 		else if (this->_Myres <= max_size() - this->_Myres / 2)
; 2208 : 			_Newres = this->_Myres
; 2209 : 				+ this->_Myres / 2;	// grow exponentially if possible
; 2210 : 		else
; 2211 : 			_Newres = max_size();	// settle for max_size()
; 2212 : 
; 2213 : 		_Elem *_Ptr;
; 2214 : 		_TRY_BEGIN
; 2215 : 			_Ptr = this->_Getal().allocate(_Newres + 1);
; 2216 : 		_CATCH_ALL
; 2217 : 			_Newres = _Newsize;	// allocation failed, undo roundup and retry
; 2218 : 			_TRY_BEGIN
; 2219 : 				_Ptr = this->_Getal().allocate(_Newres + 1);
; 2220 : 			_CATCH_ALL
; 2221 : 			_Tidy(true);	// failed again, discard storage and reraise
; 2222 : 			_RERAISE;
; 2223 : 			_CATCH_END
; 2224 : 		_CATCH_END
; 2225 : 
; 2226 : 		if (0 < _Oldlen)
; 2227 : 			_Traits::copy(_Ptr, this->_Myptr(),
; 2228 : 				_Oldlen);	// copy existing elements
; 2229 : 		_Tidy(true);
; 2230 : 		this->_Getal().construct(&this->_Bx._Ptr, _Ptr);
; 2231 : 		this->_Myres = _Newres;
; 2232 : 		_Eos(_Oldlen);
; 2233 : 		}
; 2234 : 
; 2235 : 	void _Eos(size_type _Newsize)
; 2236 : 		{	// set new length and null terminator
; 2237 : 		_Traits::assign(this->_Myptr()[this->_Mysize = _Newsize], _Elem());

	mov	QWORD PTR [rbx+16], r8
; File d:\program files (x86)\microsoft visual studio 12.0\vc\include\iosfwd

; 564  : 		_Left = _Right;

	mov	BYTE PTR [rbx], r8b

; 523  : 			: _CSTD strlen(_First));

	cmp	BYTE PTR [r10], r8b
	je	SHORT $LN53@valueToStr
	or	r8, -1
$LL57@valueToStr:
	inc	r8
	cmp	BYTE PTR [r10+r8], 0
	jne	SHORT $LL57@valueToStr
$LN53@valueToStr:
; File d:\program files (x86)\microsoft visual studio 12.0\vc\include\xstring

; 1169 : 		return (assign(_Ptr, _Traits::length(_Ptr)));

	mov	rdx, r10
	mov	rcx, rbx
	call	?assign@?$basic_string@DU?$char_traits@D@std@@V?$allocator@D@2@@std@@QEAAAEAV12@PEBD_K@Z ; std::basic_string<char,std::char_traits<char>,std::allocator<char> >::assign
; File e:\jsoncpp-master\src\lib_json\json_writer.cpp

; 123  :   return current;

	mov	rax, rbx

; 124  : }

	mov	rcx, QWORD PTR __$ArrayPad$[rsp]
	xor	rcx, rsp
	call	__security_check_cookie
	add	rsp, 80					; 00000050H
	pop	rbx
	ret	0
?valueToString@Json@@YA?AV?$basic_string@DU?$char_traits@D@std@@V?$allocator@D@2@@std@@_K@Z ENDP ; Json::valueToString
_TEXT	ENDS
; Function compile flags: /Ogtpy
; File e:\jsoncpp-master\src\lib_json\json_writer.cpp
; File e:\jsoncpp-master\src\lib_json\json_tool.h
; File e:\jsoncpp-master\src\lib_json\json_writer.cpp
; File e:\jsoncpp-master\src\lib_json\json_tool.h
; File e:\jsoncpp-master\src\lib_json\json_writer.cpp
; File e:\jsoncpp-master\src\lib_json\json_tool.h
; File e:\jsoncpp-master\src\lib_json\json_writer.cpp
; File e:\jsoncpp-master\src\lib_json\json_tool.h
; File d:\program files (x86)\microsoft visual studio 12.0\vc\include\xstring
; File d:\program files (x86)\microsoft visual studio 12.0\vc\include\iosfwd
; File d:\program files (x86)\microsoft visual studio 12.0\vc\include\xstring
; File e:\jsoncpp-master\src\lib_json\json_writer.cpp
;	COMDAT ?valueToString@Json@@YA?AV?$basic_string@DU?$char_traits@D@std@@V?$allocator@D@2@@std@@_J@Z
_TEXT	SEGMENT
$T1 = 32
buffer$ = 40
__$ArrayPad$ = 72
__$ReturnUdt$ = 96
value$ = 104
?valueToString@Json@@YA?AV?$basic_string@DU?$char_traits@D@std@@V?$allocator@D@2@@std@@_J@Z PROC ; Json::valueToString, COMDAT

; 102  : JSONCPP_STRING valueToString(LargestInt value) {

$LN79:
	push	rdi
	sub	rsp, 80					; 00000050H
	mov	rax, QWORD PTR __security_cookie
	xor	rax, rsp
	mov	QWORD PTR __$ArrayPad$[rsp], rax
	xor	r10d, r10d

; 105  :   if (value == Value::minLargestInt) {

	mov	r11, -9223372036854775808		; 8000000000000000H
	mov	QWORD PTR [rsp+104], rbx
	mov	rdi, rcx
	mov	r9, rdx
; File e:\jsoncpp-master\src\lib_json\json_tool.h

; 82   :   *--current = 0;

	mov	rbx, -3689348814741910323		; cccccccccccccccdH
	mov	DWORD PTR $T1[rsp], r10d
	mov	BYTE PTR buffer$[rsp+24], r10b
	lea	rcx, QWORD PTR buffer$[rsp+24]
; File e:\jsoncpp-master\src\lib_json\json_writer.cpp

; 105  :   if (value == Value::minLargestInt) {

	cmp	rdx, r11
	jne	SHORT $LN4@valueToStr
	npad	5
$LL11@valueToStr:
; File e:\jsoncpp-master\src\lib_json\json_tool.h

; 84   :     *--current = static_cast<char>(value % 10U + static_cast<unsigned>('0'));

	mov	rax, rbx
	dec	rcx
	mul	r11
	mov	r8, rdx
	shr	r8, 3
	movzx	eax, r8b
	shl	al, 2
	lea	edx, DWORD PTR [rax+r8]
	add	dl, dl
	sub	r11b, dl
	add	r11b, 48				; 00000030H
	mov	BYTE PTR [rcx], r11b

; 85   :     value /= 10;

	mov	r11, r8

; 86   :   } while (value != 0);

	test	r8, r8
	jne	SHORT $LL11@valueToStr
; File e:\jsoncpp-master\src\lib_json\json_writer.cpp

; 107  :     *--current = '-';

	dec	rcx
	mov	BYTE PTR [rcx], 45			; 0000002dH
	jmp	SHORT $LN19@valueToStr
$LN4@valueToStr:

; 108  :   } else if (value < 0) {

	test	rdx, rdx
	jns	SHORT $LL21@valueToStr

; 109  :     uintToString(LargestUInt(-value), current);

	neg	r9
	npad	1
$LL16@valueToStr:
; File e:\jsoncpp-master\src\lib_json\json_tool.h

; 84   :     *--current = static_cast<char>(value % 10U + static_cast<unsigned>('0'));

	mov	rax, rbx
	dec	rcx
	mul	r9
	mov	r8, rdx
	shr	r8, 3
	movzx	eax, r8b
	shl	al, 2
	lea	edx, DWORD PTR [rax+r8]
	add	dl, dl
	sub	r9b, dl
	add	r9b, 48					; 00000030H
	mov	BYTE PTR [rcx], r9b

; 85   :     value /= 10;

	mov	r9, r8

; 86   :   } while (value != 0);

	test	r8, r8
	jne	SHORT $LL16@valueToStr
; File e:\jsoncpp-master\src\lib_json\json_writer.cpp

; 110  :     *--current = '-';

	dec	rcx
	mov	BYTE PTR [rcx], 45			; 0000002dH

; 111  :   } else {

	jmp	SHORT $LN19@valueToStr
	npad	9
$LL21@valueToStr:
; File e:\jsoncpp-master\src\lib_json\json_tool.h

; 84   :     *--current = static_cast<char>(value % 10U + static_cast<unsigned>('0'));

	mov	rax, rbx
	dec	rcx
	mul	r9
	mov	r8, rdx
	shr	r8, 3
	movzx	eax, r8b
	shl	al, 2
	lea	edx, DWORD PTR [rax+r8]
	add	dl, dl
	sub	r9b, dl
	add	r9b, 48					; 00000030H
	mov	BYTE PTR [rcx], r9b

; 85   :     value /= 10;

	mov	r9, r8

; 86   :   } while (value != 0);

	test	r8, r8
	jne	SHORT $LL21@valueToStr
$LN19@valueToStr:
	mov	rbx, QWORD PTR [rsp+104]
; File d:\program files (x86)\microsoft visual studio 12.0\vc\include\xstring

; 2284 : 		this->_Myres = this->_BUF_SIZE - 1;

	mov	QWORD PTR [rdi+24], 15

; 1170 : 		}
; 1171 : 
; 1172 : 	_Myt& assign(size_type _Count, _Elem _Ch)
; 1173 : 		{	// assign _Count * _Ch
; 1174 : 		if (_Count == npos)
; 1175 : 			_Xlen();	// result too long
; 1176 : 
; 1177 : 		if (_Grow(_Count))
; 1178 : 			{	// make room and assign new stuff
; 1179 : 			_Chassign(0, _Count, _Ch);
; 1180 : 			_Eos(_Count);
; 1181 : 			}
; 1182 : 		return (*this);
; 1183 : 		}
; 1184 : 
; 1185 : 	template<class _Iter>
; 1186 : 		typename enable_if<_Is_iterator<_Iter>::value,
; 1187 : 			_Myt&>::type
; 1188 : 		assign(_Iter _First, _Iter _Last)
; 1189 : 		{	// assign [_First, _Last), input iterators
; 1190 : 		return (replace(begin(), end(), _First, _Last));
; 1191 : 		}
; 1192 : 
; 1193 : 	_Myt& assign(const_pointer _First, const_pointer _Last)
; 1194 : 		{	// assign [_First, _Last), const pointers
; 1195 : 		return (replace(begin(), end(), _First, _Last));
; 1196 : 		}
; 1197 : 
; 1198 : 	_Myt& assign(const_iterator _First, const_iterator _Last)
; 1199 : 		{	// assign [_First, _Last), const_iterators
; 1200 : 		return (replace(begin(), end(), _First, _Last));
; 1201 : 		}
; 1202 : 
; 1203 : 	_Myt& insert(size_type _Off, const _Myt& _Right)
; 1204 : 		{	// insert _Right at _Off
; 1205 : 		return (insert(_Off, _Right, 0, npos));
; 1206 : 		}
; 1207 : 
; 1208 : 	_Myt& insert(size_type _Off,
; 1209 : 		const _Myt& _Right, size_type _Roff, size_type _Count)
; 1210 : 		{	// insert _Right [_Roff, _Roff + _Count) at _Off
; 1211 : 		if (this->_Mysize < _Off || _Right.size() < _Roff)
; 1212 : 			_Xran();	// _Off or _Roff off end
; 1213 : 		size_type _Num = _Right.size() - _Roff;
; 1214 : 		if (_Num < _Count)
; 1215 : 			_Count = _Num;	// trim _Count to size
; 1216 : 		if (npos - this->_Mysize <= _Count)
; 1217 : 			_Xlen();	// result too long
; 1218 : 
; 1219 : 		if (0 < _Count && _Grow(_Num = this->_Mysize + _Count))
; 1220 : 			{	// make room and insert new stuff
; 1221 : 			_Traits::move(this->_Myptr() + _Off + _Count,
; 1222 : 				this->_Myptr() + _Off,
; 1223 : 				this->_Mysize - _Off);	// empty out hole
; 1224 : 			if (this == &_Right)
; 1225 : 				_Traits::move(this->_Myptr() + _Off,
; 1226 : 					this->_Myptr() + (_Off < _Roff ? _Roff + _Count : _Roff),
; 1227 : 						_Count);	// substring
; 1228 : 			else
; 1229 : 				_Traits::copy(this->_Myptr() + _Off,
; 1230 : 					_Right._Myptr() + _Roff, _Count);	// fill hole
; 1231 : 			_Eos(_Num);
; 1232 : 			}
; 1233 : 		return (*this);
; 1234 : 		}
; 1235 : 
; 1236 : 	_Myt& insert(size_type _Off,
; 1237 : 		const _Elem *_Ptr, size_type _Count)
; 1238 : 		{	// insert [_Ptr, _Ptr + _Count) at _Off
; 1239 :  #if _ITERATOR_DEBUG_LEVEL == 2
; 1240 : 		if (_Count != 0)
; 1241 : 			_DEBUG_POINTER(_Ptr);
; 1242 :  #endif /* _ITERATOR_DEBUG_LEVEL == 2 */
; 1243 : 
; 1244 : 		if (_Inside(_Ptr))
; 1245 : 			return (insert(_Off, *this,
; 1246 : 				_Ptr - this->_Myptr(), _Count));	// substring
; 1247 : 		if (this->_Mysize < _Off)
; 1248 : 			_Xran();	// _Off off end
; 1249 : 		if (npos - this->_Mysize <= _Count)
; 1250 : 			_Xlen();	// result too long
; 1251 : 		size_type _Num;
; 1252 : 		if (0 < _Count && _Grow(_Num = this->_Mysize + _Count))
; 1253 : 			{	// make room and insert new stuff
; 1254 : 			_Traits::move(this->_Myptr() + _Off + _Count,
; 1255 : 				this->_Myptr() + _Off,
; 1256 : 				this->_Mysize - _Off);	// empty out hole
; 1257 : 			_Traits::copy(this->_Myptr() + _Off, _Ptr, _Count);	// fill hole
; 1258 : 			_Eos(_Num);
; 1259 : 			}
; 1260 : 		return (*this);
; 1261 : 		}
; 1262 : 
; 1263 : 	_Myt& insert(size_type _Off, const _Elem *_Ptr)
; 1264 : 		{	// insert [_Ptr, <null>) at _Off
; 1265 : 		_DEBUG_POINTER(_Ptr);
; 1266 : 		return (insert(_Off, _Ptr, _Traits::length(_Ptr)));
; 1267 : 		}
; 1268 : 
; 1269 : 	_Myt& insert(size_type _Off,
; 1270 : 		size_type _Count, _Elem _Ch)
; 1271 : 		{	// insert _Count * _Ch at _Off
; 1272 : 		if (this->_Mysize < _Off)
; 1273 : 			_Xran();	// _Off off end
; 1274 : 		if (npos - this->_Mysize <= _Count)
; 1275 : 			_Xlen();	// result too long
; 1276 : 		size_type _Num;
; 1277 : 		if (0 < _Count && _Grow(_Num = this->_Mysize + _Count))
; 1278 : 			{	// make room and insert new stuff
; 1279 : 			_Traits::move(this->_Myptr() + _Off + _Count,
; 1280 : 				this->_Myptr() + _Off,
; 1281 : 				this->_Mysize - _Off);	// empty out hole
; 1282 : 			_Chassign(_Off, _Count, _Ch);	// fill hole
; 1283 : 			_Eos(_Num);
; 1284 : 			}
; 1285 : 		return (*this);
; 1286 : 		}
; 1287 : 
; 1288 : 	iterator insert(const_iterator _Where)
; 1289 : 		{	// insert <null> at _Where
; 1290 : 		return (insert(_Where, _Elem()));
; 1291 : 		}
; 1292 : 
; 1293 : 	iterator insert(const_iterator _Where, _Elem _Ch)
; 1294 : 		{	// insert _Ch at _Where
; 1295 : 		size_type _Off = _Pdif(_Where, begin());
; 1296 : 		insert(_Off, 1, _Ch);
; 1297 : 		return (begin() + _Off);
; 1298 : 		}
; 1299 : 
; 1300 : 	iterator insert(const_iterator _Where, size_type _Count, _Elem _Ch)
; 1301 : 		{	// insert _Count * _Elem at _Where
; 1302 : 		size_type _Off = _Pdif(_Where, begin());
; 1303 : 		insert(_Off, _Count, _Ch);
; 1304 : 		return (begin() + _Off);
; 1305 : 		}
; 1306 : 
; 1307 : 	template<class _Iter>
; 1308 : 		typename enable_if<_Is_iterator<_Iter>::value,
; 1309 : 			iterator>::type
; 1310 : 		insert(const_iterator _Where, _Iter _First, _Iter _Last)
; 1311 : 		{	// insert [_First, _Last) at _Where, input iterators
; 1312 : 		size_type _Off = _Pdif(_Where, begin());
; 1313 : 		replace(_Where, _Where, _First, _Last);
; 1314 : 		return (begin() + _Off);
; 1315 : 		}
; 1316 : 
; 1317 : 	iterator insert(const_iterator _Where,
; 1318 : 		const_pointer _First, const_pointer _Last)
; 1319 : 		{	// insert [_First, _Last) at _Where, const pointers
; 1320 : 		size_type _Off = _Pdif(_Where, begin());
; 1321 : 		replace(_Where, _Where, _First, _Last);
; 1322 : 		return (begin() + _Off);
; 1323 : 		}
; 1324 : 
; 1325 : 	iterator insert(const_iterator _Where,
; 1326 : 		const_iterator _First, const_iterator _Last)
; 1327 : 		{	// insert [_First, _Last) at _Where, const_iterators
; 1328 : 		size_type _Off = _Pdif(_Where, begin());
; 1329 : 		replace(_Where, _Where, _First, _Last);
; 1330 : 		return (begin() + _Off);
; 1331 : 		}
; 1332 : 
; 1333 : 	_Myt& erase(size_type _Off = 0)
; 1334 : 		{	// erase elements [_Off, ...)
; 1335 : 		if (this->_Mysize < _Off)
; 1336 : 			_Xran();	// _Off off end
; 1337 : 		_Eos(_Off);
; 1338 : 		return (*this);
; 1339 : 		}
; 1340 : 
; 1341 : 	_Myt& erase(size_type _Off, size_type _Count)
; 1342 : 		{	// erase elements [_Off, _Off + _Count)
; 1343 : 		if (this->_Mysize < _Off)
; 1344 : 			_Xran();	// _Off off end
; 1345 : 		if (this->_Mysize - _Off <= _Count)
; 1346 : 			_Eos(_Off);	// erase elements [_Off, ...)
; 1347 : 		else if (0 < _Count)
; 1348 : 			{	// move elements down
; 1349 : 			value_type *_Ptr = this->_Myptr() + _Off;
; 1350 : 			size_type _Newsize = this->_Mysize - _Count;
; 1351 : 			_Traits::move(_Ptr, _Ptr + _Count, _Newsize - _Off);
; 1352 : 			_Eos(_Newsize);
; 1353 : 			}
; 1354 : 		return (*this);
; 1355 : 		}
; 1356 : 
; 1357 : 	iterator erase(const_iterator _Where)
; 1358 : 		{	// erase element at _Where
; 1359 : 		size_type _Count = _Pdif(_Where, begin());
; 1360 : 		erase(_Count, 1);
; 1361 : 		return (_STRING_ITERATOR(this->_Myptr() + _Count));
; 1362 : 		}
; 1363 : 
; 1364 : 	iterator erase(const_iterator _First, const_iterator _Last)
; 1365 : 		{	// erase substring [_First, _Last)
; 1366 : 		_DEBUG_RANGE(_First, _Last);
; 1367 : 		size_type _Count = _Pdif(_First, begin());
; 1368 : 		erase(_Count, _Pdif(_Last, _First));
; 1369 : 		return (_STRING_ITERATOR(this->_Myptr() + _Count));
; 1370 : 		}
; 1371 : 
; 1372 : 	void clear() _NOEXCEPT
; 1373 : 		{	// erase all
; 1374 : 		_Eos(0);
; 1375 : 		}
; 1376 : 
; 1377 : 	_Myt& replace(size_type _Off, size_type _N0, const _Myt& _Right)
; 1378 : 		{	// replace [_Off, _Off + _N0) with _Right
; 1379 : 		return (replace(_Off, _N0, _Right, 0, npos));
; 1380 : 		}
; 1381 : 
; 1382 : 	_Myt& replace(size_type _Off,
; 1383 : 		size_type _N0, const _Myt& _Right, size_type _Roff, size_type _Count)
; 1384 : 		{	// replace [_Off, _Off + _N0) with _Right [_Roff, _Roff + _Count)
; 1385 : 		if (this->_Mysize < _Off || _Right.size() < _Roff)
; 1386 : 			_Xran();	// _Off or _Roff off end
; 1387 : 		if (this->_Mysize - _Off < _N0)
; 1388 : 			_N0 = this->_Mysize - _Off;	// trim _N0 to size
; 1389 : 		size_type _Num = _Right.size() - _Roff;
; 1390 : 		if (_Num < _Count)
; 1391 : 			_Count = _Num;	// trim _Count to size
; 1392 : 		if (npos - _Count <= this->_Mysize - _N0)
; 1393 : 			_Xlen();	// result too long
; 1394 : 
; 1395 : 		size_type _Nm = this->_Mysize - _N0 - _Off;	// length of kept tail
; 1396 : 		size_type _Newsize = this->_Mysize + _Count - _N0;
; 1397 : 		if (this->_Mysize < _Newsize)
; 1398 : 			_Grow(_Newsize);
; 1399 : 
; 1400 : 		if (this != &_Right)
; 1401 : 			{	// no overlap, just move down and copy in new stuff
; 1402 : 			_Traits::move(this->_Myptr() + _Off + _Count,
; 1403 : 				this->_Myptr() + _Off + _N0, _Nm);	// empty hole
; 1404 : 			_Traits::copy(this->_Myptr() + _Off,
; 1405 : 				_Right._Myptr() + _Roff, _Count);	// fill hole
; 1406 : 			}
; 1407 : 		else if (_Count <= _N0)
; 1408 : 			{	// hole doesn't get larger, just copy in substring
; 1409 : 			_Traits::move(this->_Myptr() + _Off,
; 1410 : 				this->_Myptr() + _Roff, _Count);	// fill hole
; 1411 : 			_Traits::move(this->_Myptr() + _Off + _Count,
; 1412 : 				this->_Myptr() + _Off + _N0, _Nm);	// move tail down
; 1413 : 			}
; 1414 : 		else if (_Roff <= _Off)
; 1415 : 			{	// hole gets larger, substring begins before hole
; 1416 : 			_Traits::move(this->_Myptr() + _Off + _Count,
; 1417 : 				this->_Myptr() + _Off + _N0, _Nm);	// move tail down
; 1418 : 			_Traits::move(this->_Myptr() + _Off,
; 1419 : 				this->_Myptr() + _Roff, _Count);	// fill hole
; 1420 : 			}
; 1421 : 		else if (_Off + _N0 <= _Roff)
; 1422 : 			{	// hole gets larger, substring begins after hole
; 1423 : 			_Traits::move(this->_Myptr() + _Off + _Count,
; 1424 : 				this->_Myptr() + _Off + _N0, _Nm);	// move tail down
; 1425 : 			_Traits::move(this->_Myptr() + _Off,
; 1426 : 				this->_Myptr() + (_Roff + _Count - _N0),
; 1427 : 				_Count);	// fill hole
; 1428 : 			}
; 1429 : 		else
; 1430 : 			{	// hole gets larger, substring begins in hole
; 1431 : 			_Traits::move(this->_Myptr() + _Off,
; 1432 : 				this->_Myptr() + _Roff, _N0);	// fill old hole
; 1433 : 			_Traits::move(this->_Myptr() + _Off + _Count,
; 1434 : 				this->_Myptr() + _Off + _N0, _Nm);	// move tail down
; 1435 : 			_Traits::move(this->_Myptr() + _Off + _N0,
; 1436 : 				this->_Myptr() + _Roff + _Count,
; 1437 : 				_Count - _N0);	// fill rest of new hole
; 1438 : 			}
; 1439 : 
; 1440 : 		_Eos(_Newsize);
; 1441 : 		return (*this);
; 1442 : 		}
; 1443 : 
; 1444 : 	_Myt& replace(size_type _Off,
; 1445 : 		size_type _N0, const _Elem *_Ptr, size_type _Count)
; 1446 : 		{	// replace [_Off, _Off + _N0) with [_Ptr, _Ptr + _Count)
; 1447 :  #if _ITERATOR_DEBUG_LEVEL == 2
; 1448 : 		if (_Count != 0)
; 1449 : 			_DEBUG_POINTER(_Ptr);
; 1450 :  #endif /* _ITERATOR_DEBUG_LEVEL == 2 */
; 1451 : 
; 1452 : 		if (_Inside(_Ptr))
; 1453 : 			return (replace(_Off, _N0, *this,
; 1454 : 				_Ptr - this->_Myptr(),
; 1455 : 				_Count));	// substring, replace carefully
; 1456 : 		if (this->_Mysize < _Off)
; 1457 : 			_Xran();	// _Off off end
; 1458 : 		if (this->_Mysize - _Off < _N0)
; 1459 : 			_N0 = this->_Mysize - _Off;	// trim _N0 to size
; 1460 : 		if (npos - _Count <= this->_Mysize - _N0)
; 1461 : 			_Xlen();	// result too long
; 1462 : 		size_type _Nm = this->_Mysize - _N0 - _Off;
; 1463 : 
; 1464 : 		if (_Count < _N0)
; 1465 : 			_Traits::move(this->_Myptr() + _Off + _Count,
; 1466 : 				this->_Myptr() + _Off + _N0,
; 1467 : 				_Nm);	// smaller hole, move tail up
; 1468 : 		size_type _Num;
; 1469 : 		if ((0 < _Count || 0 < _N0)
; 1470 : 			&& _Grow(_Num = this->_Mysize + _Count - _N0))
; 1471 : 			{	// make room and rearrange
; 1472 : 			if (_N0 < _Count)
; 1473 : 				_Traits::move(this->_Myptr() + _Off + _Count,
; 1474 : 					this->_Myptr() + _Off + _N0, _Nm);	// move tail down
; 1475 : 			_Traits::copy(this->_Myptr() + _Off, _Ptr, _Count);	// fill hole
; 1476 : 			_Eos(_Num);
; 1477 : 			}
; 1478 : 		return (*this);
; 1479 : 		}
; 1480 : 
; 1481 : 	_Myt& replace(size_type _Off, size_type _N0, const _Elem *_Ptr)
; 1482 : 		{	// replace [_Off, _Off + _N0) with [_Ptr, <null>)
; 1483 : 		_DEBUG_POINTER(_Ptr);
; 1484 : 		return (replace(_Off, _N0, _Ptr, _Traits::length(_Ptr)));
; 1485 : 		}
; 1486 : 
; 1487 : 	_Myt& replace(size_type _Off,
; 1488 : 		size_type _N0, size_type _Count, _Elem _Ch)
; 1489 : 		{	// replace [_Off, _Off + _N0) with _Count * _Ch
; 1490 : 		if (this->_Mysize < _Off)
; 1491 : 			_Xran();	// _Off off end
; 1492 : 		if (this->_Mysize - _Off < _N0)
; 1493 : 			_N0 = this->_Mysize - _Off;	// trim _N0 to size
; 1494 : 		if (npos - _Count <= this->_Mysize - _N0)
; 1495 : 			_Xlen();	// result too long
; 1496 : 		size_type _Nm = this->_Mysize - _N0 - _Off;
; 1497 : 
; 1498 : 		if (_Count < _N0)
; 1499 : 			_Traits::move(this->_Myptr() + _Off + _Count,
; 1500 : 				this->_Myptr() + _Off + _N0,
; 1501 : 				_Nm);	// smaller hole, move tail up
; 1502 : 		size_type _Num;
; 1503 : 		if ((0 < _Count || 0 < _N0)
; 1504 : 			&& _Grow(_Num = this->_Mysize + _Count - _N0))
; 1505 : 			{	// make room and rearrange
; 1506 : 			if (_N0 < _Count)
; 1507 : 				_Traits::move(this->_Myptr() + _Off + _Count,
; 1508 : 					this->_Myptr() + _Off + _N0, _Nm);	// move tail down
; 1509 : 			_Chassign(_Off, _Count, _Ch);	// fill hole
; 1510 : 			_Eos(_Num);
; 1511 : 			}
; 1512 : 		return (*this);
; 1513 : 		}
; 1514 : 
; 1515 : 	_Myt& replace(const_iterator _First, const_iterator _Last,
; 1516 : 		const _Myt& _Right)
; 1517 : 		{	// replace [_First, _Last) with _Right
; 1518 : 		return (replace(
; 1519 : 			_Pdif(_First, begin()), _Pdif(_Last, _First), _Right));
; 1520 : 		}
; 1521 : 
; 1522 : 	_Myt& replace(const_iterator _First, const_iterator _Last,
; 1523 : 		const _Elem *_Ptr, size_type _Count)
; 1524 : 		{	// replace [_First, _Last) with [_Ptr, _Ptr + _Count)
; 1525 : 		return (replace(
; 1526 : 			_Pdif(_First, begin()), _Pdif(_Last, _First), _Ptr, _Count));
; 1527 : 		}
; 1528 : 
; 1529 : 	_Myt& replace(const_iterator _First, const_iterator _Last,
; 1530 : 		const _Elem *_Ptr)
; 1531 : 		{	// replace [_First, _Last) with [_Ptr, <null>)
; 1532 : 		return (replace(
; 1533 : 			_Pdif(_First, begin()), _Pdif(_Last, _First), _Ptr));
; 1534 : 		}
; 1535 : 
; 1536 : 	_Myt& replace(const_iterator _First, const_iterator _Last,
; 1537 : 		size_type _Count, _Elem _Ch)
; 1538 : 		{	// replace [_First, _Last) with _Count * _Ch
; 1539 : 		return (replace(
; 1540 : 			_Pdif(_First, begin()), _Pdif(_Last, _First), _Count, _Ch));
; 1541 : 		}
; 1542 : 
; 1543 : 	template<class _Iter>
; 1544 : 		typename enable_if<_Is_iterator<_Iter>::value,
; 1545 : 			_Myt&>::type
; 1546 : 		replace(const_iterator _First, const_iterator _Last,
; 1547 : 			_Iter _First2, _Iter _Last2)
; 1548 : 		{	// replace [_First, _Last) with [_First2, _Last2), input iterators
; 1549 : 		_Myt _Right(_First2, _Last2);
; 1550 : 		replace(_First, _Last, _Right);
; 1551 : 		return (*this);
; 1552 : 		}
; 1553 : 
; 1554 : 	_Myt& replace(const_iterator _First, const_iterator _Last,
; 1555 : 		const_pointer _First2, const_pointer _Last2)
; 1556 : 		{	// replace [_First, _Last) with [_First2, _Last2), const pointers
; 1557 : 		if (_First2 == _Last2)
; 1558 : 			erase(_Pdif(_First, begin()), _Pdif(_Last, _First));
; 1559 : 		else
; 1560 : 			replace(_Pdif(_First, begin()), _Pdif(_Last, _First),
; 1561 : 				&*_First2, _Last2 - _First2);
; 1562 : 		return (*this);
; 1563 : 		}
; 1564 : 
; 1565 : 	_Myt& replace(const_iterator _First, const_iterator _Last,
; 1566 : 		pointer _First2, pointer _Last2)
; 1567 : 		{	// replace [_First, _Last) with [_First2, _Last2), const pointers
; 1568 : 		if (_First2 == _Last2)
; 1569 : 			erase(_Pdif(_First, begin()), _Pdif(_Last, _First));
; 1570 : 		else
; 1571 : 			replace(_Pdif(_First, begin()), _Pdif(_Last, _First),
; 1572 : 				&*_First2, _Last2 - _First2);
; 1573 : 		return (*this);
; 1574 : 		}
; 1575 : 
; 1576 : 	_Myt& replace(const_iterator _First, const_iterator _Last,
; 1577 : 		const_iterator _First2, const_iterator _Last2)
; 1578 : 		{	// replace [_First, _Last) with [_First2, _Last2), const_iterators
; 1579 : 		if (_First2 == _Last2)
; 1580 : 			erase(_Pdif(_First, begin()), _Pdif(_Last, _First));
; 1581 : 		else
; 1582 : 			replace(_Pdif(_First, begin()), _Pdif(_Last, _First),
; 1583 : 				&*_First2, _Last2 - _First2);
; 1584 : 		return (*this);
; 1585 : 		}
; 1586 : 
; 1587 : 	_Myt& replace(const_iterator _First, const_iterator _Last,
; 1588 : 		iterator _First2, iterator _Last2)
; 1589 : 		{	// replace [_First, _Last) with [_First2, _Last2), const_iterators
; 1590 : 		if (_First2 == _Last2)
; 1591 : 			erase(_Pdif(_First, begin()), _Pdif(_Last, _First));
; 1592 : 		else
; 1593 : 			replace(_Pdif(_First, begin()), _Pdif(_Last, _First),
; 1594 : 				&*_First2, _Last2 - _First2);
; 1595 : 		return (*this);
; 1596 : 		}
; 1597 : 
; 1598 : 	iterator begin() _NOEXCEPT
; 1599 : 		{	// return iterator for beginning of mutable sequence
; 1600 : 		return (_STRING_ITERATOR(this->_Myptr()));
; 1601 : 		}
; 1602 : 
; 1603 : 	const_iterator begin() const _NOEXCEPT
; 1604 : 		{	// return iterator for beginning of nonmutable sequence
; 1605 : 		return (_STRING_CONST_ITERATOR(this->_Myptr()));
; 1606 : 		}
; 1607 : 
; 1608 : 	iterator end() _NOEXCEPT
; 1609 : 		{	// return iterator for end of mutable sequence
; 1610 : 		return (_STRING_ITERATOR(this->_Myptr() + this->_Mysize));
; 1611 : 		}
; 1612 : 
; 1613 : 	const_iterator end() const _NOEXCEPT
; 1614 : 		{	// return iterator for end of nonmutable sequence
; 1615 : 		return (_STRING_CONST_ITERATOR(this->_Myptr() + this->_Mysize));
; 1616 : 		}
; 1617 : 
; 1618 : 	reverse_iterator rbegin() _NOEXCEPT
; 1619 : 		{	// return iterator for beginning of reversed mutable sequence
; 1620 : 		return (reverse_iterator(end()));
; 1621 : 		}
; 1622 : 
; 1623 : 	const_reverse_iterator rbegin() const _NOEXCEPT
; 1624 : 		{	// return iterator for beginning of reversed nonmutable sequence
; 1625 : 		return (const_reverse_iterator(end()));
; 1626 : 		}
; 1627 : 
; 1628 : 	reverse_iterator rend() _NOEXCEPT
; 1629 : 		{	// return iterator for end of reversed mutable sequence
; 1630 : 		return (reverse_iterator(begin()));
; 1631 : 		}
; 1632 : 
; 1633 : 	const_reverse_iterator rend() const _NOEXCEPT
; 1634 : 		{	// return iterator for end of reversed nonmutable sequence
; 1635 : 		return (const_reverse_iterator(begin()));
; 1636 : 		}
; 1637 : 
; 1638 : 	const_iterator cbegin() const _NOEXCEPT
; 1639 : 		{	// return iterator for beginning of nonmutable sequence
; 1640 : 		return (((const _Myt *)this)->begin());
; 1641 : 		}
; 1642 : 
; 1643 : 	const_iterator cend() const _NOEXCEPT
; 1644 : 		{	// return iterator for end of nonmutable sequence
; 1645 : 		return (((const _Myt *)this)->end());
; 1646 : 		}
; 1647 : 
; 1648 : 	const_reverse_iterator crbegin() const _NOEXCEPT
; 1649 : 		{	// return iterator for beginning of reversed nonmutable sequence
; 1650 : 		return (((const _Myt *)this)->rbegin());
; 1651 : 		}
; 1652 : 
; 1653 : 	const_reverse_iterator crend() const _NOEXCEPT
; 1654 : 		{	// return iterator for end of reversed nonmutable sequence
; 1655 : 		return (((const _Myt *)this)->rend());
; 1656 : 		}
; 1657 : 
; 1658 : 	void shrink_to_fit()
; 1659 : 		{	// reduce capacity
; 1660 : 		if ((size() | this->_ALLOC_MASK) < capacity())
; 1661 : 			{	// worth shrinking, do it
; 1662 : 			_Myt _Tmp(*this);
; 1663 : 			swap(_Tmp);
; 1664 : 			}
; 1665 : 		}
; 1666 : 
; 1667 : 	reference at(size_type _Off)
; 1668 : 		{	// subscript mutable sequence with checking
; 1669 : 		if (this->_Mysize <= _Off)
; 1670 : 			_Xran();	// _Off off end
; 1671 : 		return (this->_Myptr()[_Off]);
; 1672 : 		}
; 1673 : 
; 1674 : 	const_reference at(size_type _Off) const
; 1675 : 		{	// subscript nonmutable sequence with checking
; 1676 : 		if (this->_Mysize <= _Off)
; 1677 : 			_Xran();	// _Off off end
; 1678 : 		return (this->_Myptr()[_Off]);
; 1679 : 		}
; 1680 : 
; 1681 : 	reference operator[](size_type _Off)
; 1682 : 		{	// subscript mutable sequence
; 1683 :  #if _ITERATOR_DEBUG_LEVEL == 2
; 1684 : 		if (this->_Mysize < _Off)	// sic
; 1685 : 			_DEBUG_ERROR("string subscript out of range");
; 1686 : 
; 1687 :  #elif _ITERATOR_DEBUG_LEVEL == 1
; 1688 : 		_SCL_SECURE_VALIDATE_RANGE(_Off <= this->_Mysize);	// sic
; 1689 :  #endif /* _ITERATOR_DEBUG_LEVEL == 2 */
; 1690 : 
; 1691 : 		return (this->_Myptr()[_Off]);
; 1692 : 		}
; 1693 : 
; 1694 : 	const_reference operator[](size_type _Off) const
; 1695 : 		{	// subscript nonmutable sequence
; 1696 :  #if _ITERATOR_DEBUG_LEVEL == 2
; 1697 : 		if (this->_Mysize < _Off)	// sic
; 1698 : 			_DEBUG_ERROR("string subscript out of range");
; 1699 : 
; 1700 :  #elif _ITERATOR_DEBUG_LEVEL == 1
; 1701 : 		_SCL_SECURE_VALIDATE_RANGE(_Off <= this->_Mysize);	// sic
; 1702 :  #endif /* _ITERATOR_DEBUG_LEVEL == 2 */
; 1703 : 
; 1704 : 		return (this->_Myptr()[_Off]);
; 1705 : 		}
; 1706 : 
; 1707 : 	void push_back(_Elem _Ch)
; 1708 : 		{	// insert element at end
; 1709 : 		insert(end(), _Ch);
; 1710 : 		}
; 1711 : 
; 1712 : 	void pop_back()
; 1713 : 		{	// erase element at end
; 1714 : 		erase(this->_Mysize - 1);	// throws if _Mysize == 0
; 1715 : 		}
; 1716 : 
; 1717 : 	reference front()
; 1718 : 		{	// return first element of mutable sequence
; 1719 : 		return (*begin());
; 1720 : 		}
; 1721 : 
; 1722 : 	const_reference front() const
; 1723 : 		{	// return first element of nonmutable sequence
; 1724 : 		return (*begin());
; 1725 : 		}
; 1726 : 
; 1727 : 	reference back()
; 1728 : 		{	// return last element of mutable sequence
; 1729 : 		return (*(end() - 1));
; 1730 : 		}
; 1731 : 
; 1732 : 	const_reference back() const
; 1733 : 		{	// return last element of nonmutable sequence
; 1734 : 		return (*(end() - 1));
; 1735 : 		}
; 1736 : 
; 1737 : 	const _Elem *c_str() const _NOEXCEPT
; 1738 : 		{	// return pointer to null-terminated nonmutable array
; 1739 : 		return (this->_Myptr());
; 1740 : 		}
; 1741 : 
; 1742 : 	const _Elem *data() const _NOEXCEPT
; 1743 : 		{	// return pointer to nonmutable array
; 1744 : 		return (c_str());
; 1745 : 		}
; 1746 : 
; 1747 : 	size_type length() const _NOEXCEPT
; 1748 : 		{	// return length of sequence
; 1749 : 		return (this->_Mysize);
; 1750 : 		}
; 1751 : 
; 1752 : 	size_type size() const _NOEXCEPT
; 1753 : 		{	// return length of sequence
; 1754 : 		return (this->_Mysize);
; 1755 : 		}
; 1756 : 
; 1757 : 	size_type max_size() const _NOEXCEPT
; 1758 : 		{	// return maximum possible length of sequence
; 1759 : 		size_type _Num = this->_Getal().max_size();
; 1760 : 		return (_Num <= 1 ? 1 : _Num - 1);
; 1761 : 		}
; 1762 : 
; 1763 : 	void resize(size_type _Newsize)
; 1764 : 		{	// determine new length, padding with null elements as needed
; 1765 : 		resize(_Newsize, _Elem());
; 1766 : 		}
; 1767 : 
; 1768 : 	void resize(size_type _Newsize, _Elem _Ch)
; 1769 : 		{	// determine new length, padding with _Ch elements as needed
; 1770 : 		if (_Newsize <= this->_Mysize)
; 1771 : 			_Eos(_Newsize);
; 1772 : 		else
; 1773 : 			append(_Newsize - this->_Mysize, _Ch);
; 1774 : 		}
; 1775 : 
; 1776 : 	size_type capacity() const _NOEXCEPT
; 1777 : 		{	// return current length of allocated storage
; 1778 : 		return (this->_Myres);
; 1779 : 		}
; 1780 : 
; 1781 : 	void reserve(size_type _Newcap = 0)
; 1782 : 		{	// determine new minimum length of allocated storage
; 1783 : 		if (this->_Mysize <= _Newcap && this->_Myres != _Newcap)
; 1784 : 			{	// change reservation
; 1785 : 			size_type _Size = this->_Mysize;
; 1786 : 			if (_Grow(_Newcap, true))
; 1787 : 				_Eos(_Size);
; 1788 : 			}
; 1789 : 		}
; 1790 : 
; 1791 : 	bool empty() const _NOEXCEPT
; 1792 : 		{	// test if sequence is empty
; 1793 : 		return (this->_Mysize == 0);
; 1794 : 		}
; 1795 : 
; 1796 : 	_SCL_INSECURE_DEPRECATE
; 1797 : 
; 1798 : 	size_type copy(_Elem *_Ptr,
; 1799 : 		size_type _Count, size_type _Off = 0) const
; 1800 : 		{	// copy [_Off, _Off + _Count) to [_Ptr, _Ptr + _Count)
; 1801 :  #if _ITERATOR_DEBUG_LEVEL == 2
; 1802 : 		if (_Count != 0)
; 1803 : 			_DEBUG_POINTER(_Ptr);
; 1804 :  #endif /* _ITERATOR_DEBUG_LEVEL == 2 */
; 1805 : 
; 1806 : 		if (this->_Mysize < _Off)
; 1807 : 			_Xran();	// _Off off end
; 1808 : 		if (this->_Mysize - _Off < _Count)
; 1809 : 			_Count = this->_Mysize - _Off;
; 1810 : 		_Traits::copy(_Ptr, this->_Myptr() + _Off, _Count);
; 1811 : 		return (_Count);
; 1812 : 		}
; 1813 : 
; 1814 : 	size_type _Copy_s(_Elem *_Dest, size_type _Dest_size,
; 1815 : 		size_type _Count, size_type _Off = 0) const
; 1816 : 		{	// copy [_Off, _Off + _Count) to [_Dest, _Dest + _Count)
; 1817 :  #if _ITERATOR_DEBUG_LEVEL == 2
; 1818 : 		if (_Count != 0)
; 1819 : 			_DEBUG_POINTER(_Dest);
; 1820 :  #endif /* _ITERATOR_DEBUG_LEVEL == 2 */
; 1821 : 
; 1822 : 		if (this->_Mysize < _Off)
; 1823 : 			_Xran();	// _Off off end
; 1824 : 		if (this->_Mysize - _Off < _Count)
; 1825 : 			_Count = this->_Mysize - _Off;
; 1826 : 		_Traits::_Copy_s(_Dest, _Dest_size, this->_Myptr() + _Off, _Count);
; 1827 : 		return (_Count);
; 1828 : 		}
; 1829 : 
; 1830 : 	void _Swap_bx(_Myt& _Right)
; 1831 : 		{	// exchange _Bx with _Right._Bx
; 1832 : 		if (this->_BUF_SIZE <= this->_Myres)
; 1833 : 			if (this->_BUF_SIZE <= _Right._Myres)
; 1834 : 				_Swap_adl(this->_Bx._Ptr, _Right._Bx._Ptr);
; 1835 : 			else
; 1836 : 				{	// swap large with small
; 1837 : 				pointer _Ptr = this->_Bx._Ptr;
; 1838 : 				this->_Getal().destroy(&this->_Bx._Ptr);
; 1839 : 				_Traits::copy(this->_Bx._Buf,
; 1840 : 					_Right._Bx._Buf, _Right._Mysize + 1);
; 1841 : 				this->_Getal().construct(&_Right._Bx._Ptr, _Ptr);
; 1842 : 				}
; 1843 : 		else
; 1844 : 			if (_Right._Myres < this->_BUF_SIZE)
; 1845 : 				_STD swap(this->_Bx._Buf, _Right._Bx._Buf);
; 1846 : 			else
; 1847 : 				{	// swap small with large
; 1848 : 				pointer _Ptr = _Right._Bx._Ptr;
; 1849 : 				this->_Getal().destroy(&_Right._Bx._Ptr);
; 1850 : 				_Traits::copy(_Right._Bx._Buf,
; 1851 : 					this->_Bx._Buf, this->_Mysize + 1);
; 1852 : 				this->_Getal().construct(&this->_Bx._Ptr, _Ptr);
; 1853 : 				}
; 1854 : 		}
; 1855 : 
; 1856 : 	void swap(_Myt& _Right)
; 1857 : 		{	// exchange contents with _Right
; 1858 : 		if (this == &_Right)
; 1859 : 			;	// same object, do nothing
; 1860 : 		else if (this->_Getal() == _Right._Getal())
; 1861 : 			{	// same allocator, swap control information
; 1862 : 			this->_Swap_all(_Right);
; 1863 : 			_Swap_bx(_Right);
; 1864 : 			_STD swap(this->_Mysize, _Right._Mysize);
; 1865 : 			_STD swap(this->_Myres, _Right._Myres);
; 1866 : 			}
; 1867 : 
; 1868 : 		else if (_Alty::propagate_on_container_swap::value)
; 1869 : 			{	// swap allocators and control information
; 1870 : 			this->_Swap_alloc(_Right);
; 1871 : 			_Swap_bx(_Right);
; 1872 : 			_STD swap(this->_Bx, _Right._Bx);	// pointer bitwise copyable?
; 1873 : 			_STD swap(this->_Mysize, _Right._Mysize);
; 1874 : 			_STD swap(this->_Myres, _Right._Myres);
; 1875 : 			}
; 1876 : 
; 1877 : 		else
; 1878 : 			{	// different allocator, do multiple assigns
; 1879 : 			_Myt _Tmp = *this;
; 1880 : 
; 1881 : 			*this = _Right;
; 1882 : 			_Right = _Tmp;
; 1883 : 			}
; 1884 : 		}
; 1885 : 
; 1886 : 	size_type find(const _Myt& _Right, size_type _Off = 0) const _NOEXCEPT
; 1887 : 		{	// look for _Right beginning at or after _Off
; 1888 : 		return (find(_Right._Myptr(), _Off, _Right.size()));
; 1889 : 		}
; 1890 : 
; 1891 : 	size_type find(const _Elem *_Ptr,
; 1892 : 		size_type _Off, size_type _Count) const
; 1893 : 		{	// look for [_Ptr, _Ptr + _Count) beginning at or after _Off
; 1894 :  #if _ITERATOR_DEBUG_LEVEL == 2
; 1895 : 		if (_Count != 0)
; 1896 : 			_DEBUG_POINTER(_Ptr);
; 1897 :  #endif /* _ITERATOR_DEBUG_LEVEL == 2 */
; 1898 : 
; 1899 : 		if (_Count == 0 && _Off <= this->_Mysize)
; 1900 : 			return (_Off);	// null string always matches (if inside string)
; 1901 : 
; 1902 : 		size_type _Nm;
; 1903 : 		if (_Off < this->_Mysize && _Count <= (_Nm = this->_Mysize - _Off))
; 1904 : 			{	// room for match, look for it
; 1905 : 			const _Elem *_Uptr, *_Vptr;
; 1906 : 			for (_Nm -= _Count - 1, _Vptr = this->_Myptr() + _Off;
; 1907 : 				(_Uptr = _Traits::find(_Vptr, _Nm, *_Ptr)) != 0;
; 1908 : 				_Nm -= _Uptr - _Vptr + 1, _Vptr = _Uptr + 1)
; 1909 : 				if (_Traits::compare(_Uptr, _Ptr, _Count) == 0)
; 1910 : 					return (_Uptr - this->_Myptr());	// found a match
; 1911 : 			}
; 1912 : 
; 1913 : 		return (npos);	// no match
; 1914 : 		}
; 1915 : 
; 1916 : 	size_type find(const _Elem *_Ptr, size_type _Off = 0) const
; 1917 : 		{	// look for [_Ptr, <null>) beginning at or after _Off
; 1918 : 		_DEBUG_POINTER(_Ptr);
; 1919 : 		return (find(_Ptr, _Off, _Traits::length(_Ptr)));
; 1920 : 		}
; 1921 : 
; 1922 : 	size_type find(_Elem _Ch, size_type _Off = 0) const
; 1923 : 		{	// look for _Ch at or after _Off
; 1924 : 		return (find((const _Elem *)&_Ch, _Off, 1));
; 1925 : 		}
; 1926 : 
; 1927 : 	size_type rfind(const _Myt& _Right, size_type _Off = npos) const _NOEXCEPT
; 1928 : 		{	// look for _Right beginning before _Off
; 1929 : 		return (rfind(_Right._Myptr(), _Off, _Right.size()));
; 1930 : 		}
; 1931 : 
; 1932 : 	size_type rfind(const _Elem *_Ptr,
; 1933 : 		size_type _Off, size_type _Count) const
; 1934 : 		{	// look for [_Ptr, _Ptr + _Count) beginning before _Off
; 1935 :  #if _ITERATOR_DEBUG_LEVEL == 2
; 1936 : 		if (_Count != 0)
; 1937 : 			_DEBUG_POINTER(_Ptr);
; 1938 :  #endif /* _ITERATOR_DEBUG_LEVEL == 2 */
; 1939 : 
; 1940 : 		if (_Count == 0)
; 1941 : 			return (_Off < this->_Mysize ? _Off
; 1942 : 				: this->_Mysize);	// null always matches
; 1943 : 		if (_Count <= this->_Mysize)
; 1944 : 			{	// room for match, look for it
; 1945 : 			const _Elem *_Uptr = this->_Myptr() +
; 1946 : 				(_Off < this->_Mysize - _Count ? _Off
; 1947 : 					: this->_Mysize - _Count);
; 1948 : 			for (; ; --_Uptr)
; 1949 : 				if (_Traits::eq(*_Uptr, *_Ptr)
; 1950 : 					&& _Traits::compare(_Uptr, _Ptr, _Count) == 0)
; 1951 : 					return (_Uptr - this->_Myptr());	// found a match
; 1952 : 				else if (_Uptr == this->_Myptr())
; 1953 : 					break;	// at beginning, no more chance for match
; 1954 : 			}
; 1955 : 
; 1956 : 		return (npos);	// no match
; 1957 : 		}
; 1958 : 
; 1959 : 	size_type rfind(const _Elem *_Ptr, size_type _Off = npos) const
; 1960 : 		{	// look for [_Ptr, <null>) beginning before _Off
; 1961 : 		_DEBUG_POINTER(_Ptr);
; 1962 : 		return (rfind(_Ptr, _Off, _Traits::length(_Ptr)));
; 1963 : 		}
; 1964 : 
; 1965 : 	size_type rfind(_Elem _Ch, size_type _Off = npos) const
; 1966 : 		{	// look for _Ch before _Off
; 1967 : 		return (rfind((const _Elem *)&_Ch, _Off, 1));
; 1968 : 		}
; 1969 : 
; 1970 : 	size_type find_first_of(const _Myt& _Right,
; 1971 : 		size_type _Off = 0) const _NOEXCEPT
; 1972 : 		{	// look for one of _Right at or after _Off
; 1973 : 		return (find_first_of(_Right._Myptr(), _Off, _Right.size()));
; 1974 : 		}
; 1975 : 
; 1976 : 	size_type find_first_of(const _Elem *_Ptr,
; 1977 : 		size_type _Off, size_type _Count) const
; 1978 : 		{	// look for one of [_Ptr, _Ptr + _Count) at or after _Off
; 1979 :  #if _ITERATOR_DEBUG_LEVEL == 2
; 1980 : 		if (_Count != 0)
; 1981 : 			_DEBUG_POINTER(_Ptr);
; 1982 :  #endif /* _ITERATOR_DEBUG_LEVEL == 2 */
; 1983 : 
; 1984 : 		if (0 < _Count && _Off < this->_Mysize)
; 1985 : 			{	// room for match, look for it
; 1986 : 			const _Elem *const _Vptr = this->_Myptr() + this->_Mysize;
; 1987 : 			for (const _Elem *_Uptr = this->_Myptr() + _Off;
; 1988 : 				_Uptr < _Vptr; ++_Uptr)
; 1989 : 				if (_Traits::find(_Ptr, _Count, *_Uptr) != 0)
; 1990 : 					return (_Uptr - this->_Myptr());	// found a match
; 1991 : 			}
; 1992 : 
; 1993 : 		return (npos);	// no match
; 1994 : 		}
; 1995 : 
; 1996 : 	size_type find_first_of(const _Elem *_Ptr,
; 1997 : 		size_type _Off = 0) const
; 1998 : 		{	// look for one of [_Ptr, <null>) at or after _Off
; 1999 : 		_DEBUG_POINTER(_Ptr);
; 2000 : 		return (find_first_of(_Ptr, _Off, _Traits::length(_Ptr)));
; 2001 : 		}
; 2002 : 
; 2003 : 	size_type find_first_of(_Elem _Ch,
; 2004 : 		size_type _Off = 0) const
; 2005 : 		{	// look for _Ch at or after _Off
; 2006 : 		return (find((const _Elem *)&_Ch, _Off, 1));
; 2007 : 		}
; 2008 : 
; 2009 : 	size_type find_last_of(const _Myt& _Right,
; 2010 : 		size_type _Off = npos) const _NOEXCEPT
; 2011 : 		{	// look for one of _Right before _Off
; 2012 : 		return (find_last_of(_Right._Myptr(), _Off, _Right.size()));
; 2013 : 		}
; 2014 : 
; 2015 : 	size_type find_last_of(const _Elem *_Ptr,
; 2016 : 		size_type _Off, size_type _Count) const
; 2017 : 		{	// look for one of [_Ptr, _Ptr + _Count) before _Off
; 2018 :  #if _ITERATOR_DEBUG_LEVEL == 2
; 2019 : 		if (_Count != 0)
; 2020 : 			_DEBUG_POINTER(_Ptr);
; 2021 :  #endif /* _ITERATOR_DEBUG_LEVEL == 2 */
; 2022 : 
; 2023 : 		if (0 < _Count && 0 < this->_Mysize)
; 2024 : 			{	// worth searching, do it
; 2025 : 			const _Elem *_Uptr = this->_Myptr()
; 2026 : 				+ (_Off < this->_Mysize ? _Off : this->_Mysize - 1);
; 2027 : 			for (; ; --_Uptr)
; 2028 : 				if (_Traits::find(_Ptr, _Count, *_Uptr) != 0)
; 2029 : 					return (_Uptr - this->_Myptr());	// found a match
; 2030 : 				else if (_Uptr == this->_Myptr())
; 2031 : 					break;	// at beginning, no more chance for match
; 2032 : 			}
; 2033 : 
; 2034 : 		return (npos);	// no match
; 2035 : 		}
; 2036 : 
; 2037 : 	size_type find_last_of(const _Elem *_Ptr,
; 2038 : 		size_type _Off = npos) const
; 2039 : 		{	// look for one of [_Ptr, <null>) before _Off
; 2040 : 		_DEBUG_POINTER(_Ptr);
; 2041 : 		return (find_last_of(_Ptr, _Off, _Traits::length(_Ptr)));
; 2042 : 		}
; 2043 : 
; 2044 : 	size_type find_last_of(_Elem _Ch,
; 2045 : 		size_type _Off = npos) const
; 2046 : 		{	// look for _Ch before _Off
; 2047 : 		return (rfind((const _Elem *)&_Ch, _Off, 1));
; 2048 : 		}
; 2049 : 
; 2050 : 	size_type find_first_not_of(const _Myt& _Right,
; 2051 : 		size_type _Off = 0) const _NOEXCEPT
; 2052 : 		{	// look for none of _Right at or after _Off
; 2053 : 		return (find_first_not_of(_Right._Myptr(), _Off,
; 2054 : 			_Right.size()));
; 2055 : 		}
; 2056 : 
; 2057 : 	size_type find_first_not_of(const _Elem *_Ptr,
; 2058 : 		size_type _Off, size_type _Count) const
; 2059 : 		{	// look for none of [_Ptr, _Ptr + _Count) at or after _Off
; 2060 :  #if _ITERATOR_DEBUG_LEVEL == 2
; 2061 : 		if (_Count != 0)
; 2062 : 			_DEBUG_POINTER(_Ptr);
; 2063 :  #endif /* _ITERATOR_DEBUG_LEVEL == 2 */
; 2064 : 
; 2065 : 		if (_Off < this->_Mysize)
; 2066 : 			{	// room for match, look for it
; 2067 : 			const _Elem *const _Vptr = this->_Myptr() + this->_Mysize;
; 2068 : 			for (const _Elem *_Uptr = this->_Myptr() + _Off;
; 2069 : 				_Uptr < _Vptr; ++_Uptr)
; 2070 : 				if (_Traits::find(_Ptr, _Count, *_Uptr) == 0)
; 2071 : 					return (_Uptr - this->_Myptr());
; 2072 : 			}
; 2073 : 		return (npos);
; 2074 : 		}
; 2075 : 
; 2076 : 	size_type find_first_not_of(const _Elem *_Ptr,
; 2077 : 		size_type _Off = 0) const
; 2078 : 		{	// look for one of [_Ptr, <null>) at or after _Off
; 2079 : 		_DEBUG_POINTER(_Ptr);
; 2080 : 		return (find_first_not_of(_Ptr, _Off, _Traits::length(_Ptr)));
; 2081 : 		}
; 2082 : 
; 2083 : 	size_type find_first_not_of(_Elem _Ch,
; 2084 : 		size_type _Off = 0) const
; 2085 : 		{	// look for non _Ch at or after _Off
; 2086 : 		return (find_first_not_of((const _Elem *)&_Ch, _Off, 1));
; 2087 : 		}
; 2088 : 
; 2089 : 	size_type find_last_not_of(const _Myt& _Right,
; 2090 : 		size_type _Off = npos) const _NOEXCEPT
; 2091 : 		{	// look for none of _Right before _Off
; 2092 : 		return (find_last_not_of(_Right._Myptr(), _Off, _Right.size()));
; 2093 : 		}
; 2094 : 
; 2095 : 	size_type find_last_not_of(const _Elem *_Ptr,
; 2096 : 		size_type _Off, size_type _Count) const
; 2097 : 		{	// look for none of [_Ptr, _Ptr + _Count) before _Off
; 2098 :  #if _ITERATOR_DEBUG_LEVEL == 2
; 2099 : 		if (_Count != 0)
; 2100 : 			_DEBUG_POINTER(_Ptr);
; 2101 :  #endif /* _ITERATOR_DEBUG_LEVEL == 2 */
; 2102 : 
; 2103 : 		if (0 < this->_Mysize)
; 2104 : 			{	// worth searching, do it
; 2105 : 			const _Elem *_Uptr = this->_Myptr()
; 2106 : 				+ (_Off < this->_Mysize ? _Off : this->_Mysize - 1);
; 2107 : 			for (; ; --_Uptr)
; 2108 : 				if (_Traits::find(_Ptr, _Count, *_Uptr) == 0)
; 2109 : 					return (_Uptr - this->_Myptr());
; 2110 : 				else if (_Uptr == this->_Myptr())
; 2111 : 					break;
; 2112 : 			}
; 2113 : 		return (npos);
; 2114 : 		}
; 2115 : 
; 2116 : 	size_type find_last_not_of(const _Elem *_Ptr,
; 2117 : 		size_type _Off = npos) const
; 2118 : 		{	// look for none of [_Ptr, <null>) before _Off
; 2119 : 		_DEBUG_POINTER(_Ptr);
; 2120 : 		return (find_last_not_of(_Ptr, _Off, _Traits::length(_Ptr)));
; 2121 : 		}
; 2122 : 
; 2123 : 	size_type find_last_not_of(_Elem _Ch,
; 2124 : 		size_type _Off = npos) const
; 2125 : 		{	// look for non _Ch before _Off
; 2126 : 		return (find_last_not_of((const _Elem *)&_Ch, _Off, 1));
; 2127 : 		}
; 2128 : 
; 2129 : 	_Myt substr(size_type _Off = 0, size_type _Count = npos) const
; 2130 : 		{	// return [_Off, _Off + _Count) as new string
; 2131 : 		return (_Myt(*this, _Off, _Count, get_allocator()));
; 2132 : 		}
; 2133 : 
; 2134 : 	int compare(const _Myt& _Right) const _NOEXCEPT
; 2135 : 		{	// compare [0, _Mysize) with _Right
; 2136 : 		return (compare(0, this->_Mysize, _Right._Myptr(), _Right.size()));
; 2137 : 		}
; 2138 : 
; 2139 : 	int compare(size_type _Off, size_type _N0,
; 2140 : 		const _Myt& _Right) const
; 2141 : 		{	// compare [_Off, _Off + _N0) with _Right
; 2142 : 		return (compare(_Off, _N0, _Right, 0, npos));
; 2143 : 		}
; 2144 : 
; 2145 : 	int compare(size_type _Off,
; 2146 : 		size_type _N0, const _Myt& _Right,
; 2147 : 		size_type _Roff, size_type _Count) const
; 2148 : 		{	// compare [_Off, _Off + _N0) with _Right [_Roff, _Roff + _Count)
; 2149 : 		if (_Right.size() < _Roff)
; 2150 : 			_Xran();	// _Off off end
; 2151 : 		if (_Right._Mysize - _Roff < _Count)
; 2152 : 			_Count = _Right._Mysize - _Roff;	// trim _Count to size
; 2153 : 		return (compare(_Off, _N0, _Right._Myptr() + _Roff, _Count));
; 2154 : 		}
; 2155 : 
; 2156 : 	int compare(const _Elem *_Ptr) const
; 2157 : 		{	// compare [0, _Mysize) with [_Ptr, <null>)
; 2158 : 		_DEBUG_POINTER(_Ptr);
; 2159 : 		return (compare(0, this->_Mysize, _Ptr, _Traits::length(_Ptr)));
; 2160 : 		}
; 2161 : 
; 2162 : 	int compare(size_type _Off, size_type _N0, const _Elem *_Ptr) const
; 2163 : 		{	// compare [_Off, _Off + _N0) with [_Ptr, <null>)
; 2164 : 		_DEBUG_POINTER(_Ptr);
; 2165 : 		return (compare(_Off, _N0, _Ptr, _Traits::length(_Ptr)));
; 2166 : 		}
; 2167 : 
; 2168 : 	int compare(size_type _Off,
; 2169 : 		size_type _N0, const _Elem *_Ptr, size_type _Count) const
; 2170 : 		{	// compare [_Off, _Off + _N0) with [_Ptr, _Ptr + _Count)
; 2171 :  #if _ITERATOR_DEBUG_LEVEL == 2
; 2172 : 		if (_Count != 0)
; 2173 : 			_DEBUG_POINTER(_Ptr);
; 2174 :  #endif /* _ITERATOR_DEBUG_LEVEL == 2 */
; 2175 : 
; 2176 : 		if (this->_Mysize < _Off)
; 2177 : 			_Xran();	// _Off off end
; 2178 : 		if (this->_Mysize - _Off < _N0)
; 2179 : 			_N0 = this->_Mysize - _Off;	// trim _N0 to size
; 2180 : 
; 2181 : 		size_type _Ans = _Traits::compare(this->_Myptr() + _Off, _Ptr,
; 2182 : 			_N0 < _Count ? _N0 : _Count);
; 2183 : 		return (_Ans != 0 ? (int)_Ans : _N0 < _Count ? -1
; 2184 : 			: _N0 == _Count ? 0 : +1);
; 2185 : 		}
; 2186 : 
; 2187 : 	allocator_type get_allocator() const _NOEXCEPT
; 2188 : 		{	// return allocator object for values
; 2189 : 		return (this->_Getal());
; 2190 : 		}
; 2191 : 
; 2192 : 	void _Chassign(size_type _Off, size_type _Count, _Elem _Ch)
; 2193 : 		{	// assign _Count copies of _Ch beginning at _Off
; 2194 : 		if (_Count == 1)
; 2195 : 			_Traits::assign(*(this->_Myptr() + _Off), _Ch);
; 2196 : 		else
; 2197 : 			_Traits::assign(this->_Myptr() + _Off, _Count, _Ch);
; 2198 : 		}
; 2199 : 
; 2200 : 	void _Copy(size_type _Newsize, size_type _Oldlen)
; 2201 : 		{	// copy _Oldlen elements to newly allocated buffer
; 2202 : 		size_type _Newres = _Newsize | this->_ALLOC_MASK;
; 2203 : 		if (max_size() < _Newres)
; 2204 : 			_Newres = _Newsize;	// undo roundup if too big
; 2205 : 		else if (this->_Myres / 2 <= _Newres / 3)
; 2206 : 			;
; 2207 : 		else if (this->_Myres <= max_size() - this->_Myres / 2)
; 2208 : 			_Newres = this->_Myres
; 2209 : 				+ this->_Myres / 2;	// grow exponentially if possible
; 2210 : 		else
; 2211 : 			_Newres = max_size();	// settle for max_size()
; 2212 : 
; 2213 : 		_Elem *_Ptr;
; 2214 : 		_TRY_BEGIN
; 2215 : 			_Ptr = this->_Getal().allocate(_Newres + 1);
; 2216 : 		_CATCH_ALL
; 2217 : 			_Newres = _Newsize;	// allocation failed, undo roundup and retry
; 2218 : 			_TRY_BEGIN
; 2219 : 				_Ptr = this->_Getal().allocate(_Newres + 1);
; 2220 : 			_CATCH_ALL
; 2221 : 			_Tidy(true);	// failed again, discard storage and reraise
; 2222 : 			_RERAISE;
; 2223 : 			_CATCH_END
; 2224 : 		_CATCH_END
; 2225 : 
; 2226 : 		if (0 < _Oldlen)
; 2227 : 			_Traits::copy(_Ptr, this->_Myptr(),
; 2228 : 				_Oldlen);	// copy existing elements
; 2229 : 		_Tidy(true);
; 2230 : 		this->_Getal().construct(&this->_Bx._Ptr, _Ptr);
; 2231 : 		this->_Myres = _Newres;
; 2232 : 		_Eos(_Oldlen);
; 2233 : 		}
; 2234 : 
; 2235 : 	void _Eos(size_type _Newsize)
; 2236 : 		{	// set new length and null terminator
; 2237 : 		_Traits::assign(this->_Myptr()[this->_Mysize = _Newsize], _Elem());

	mov	QWORD PTR [rdi+16], r10
; File d:\program files (x86)\microsoft visual studio 12.0\vc\include\iosfwd

; 564  : 		_Left = _Right;

	mov	BYTE PTR [rdi], r10b

; 523  : 			: _CSTD strlen(_First));

	cmp	BYTE PTR [rcx], r10b
	je	SHORT $LN67@valueToStr
	or	r10, -1
	npad	4
$LL77@valueToStr:
	inc	r10
	cmp	BYTE PTR [rcx+r10], 0
	jne	SHORT $LL77@valueToStr
$LN67@valueToStr:
; File d:\program files (x86)\microsoft visual studio 12.0\vc\include\xstring

; 1169 : 		return (assign(_Ptr, _Traits::length(_Ptr)));

	mov	rdx, rcx
	mov	r8, r10
	mov	rcx, rdi
	call	?assign@?$basic_string@DU?$char_traits@D@std@@V?$allocator@D@2@@std@@QEAAAEAV12@PEBD_K@Z ; std::basic_string<char,std::char_traits<char>,std::allocator<char> >::assign
; File e:\jsoncpp-master\src\lib_json\json_writer.cpp

; 115  :   return current;

	mov	rax, rdi

; 116  : }

	mov	rcx, QWORD PTR __$ArrayPad$[rsp]
	xor	rcx, rsp
	call	__security_check_cookie
	add	rsp, 80					; 00000050H
	pop	rdi
	ret	0
?valueToString@Json@@YA?AV?$basic_string@DU?$char_traits@D@std@@V?$allocator@D@2@@std@@_J@Z ENDP ; Json::valueToString
_TEXT	ENDS
; Function compile flags: /Ogtpy
; File e:\jsoncpp-master\src\lib_json\json_writer.cpp
; File d:\program files (x86)\microsoft visual studio 12.0\vc\include\vector
; File d:\program files (x86)\microsoft visual studio 12.0\vc\include\xstring
; File d:\program files (x86)\microsoft visual studio 12.0\vc\include\iosfwd
; File d:\program files (x86)\microsoft visual studio 12.0\vc\include\xstring
; File d:\program files (x86)\microsoft visual studio 12.0\vc\include\iosfwd
; File e:\jsoncpp-master\src\lib_json\json_writer.cpp
;	COMDAT ??0StyledWriter@Json@@QEAA@XZ
_TEXT	SEGMENT
this$ = 8
??0StyledWriter@Json@@QEAA@XZ PROC			; Json::StyledWriter::StyledWriter, COMDAT

; 403  :     : rightMargin_(74), indentSize_(3), addChildValues_() {}

	lea	rax, OFFSET FLAT:??_7StyledWriter@Json@@6B@
	mov	QWORD PTR [rcx], rax
; File d:\program files (x86)\microsoft visual studio 12.0\vc\include\vector

; 482  : 		_Myfirst = pointer();

	xor	eax, eax
	mov	QWORD PTR [rcx+8], rax

; 483  : 		_Mylast = pointer();

	mov	QWORD PTR [rcx+16], rax

; 484  : 		_Myend = pointer();

	mov	QWORD PTR [rcx+24], rax
; File d:\program files (x86)\microsoft visual studio 12.0\vc\include\xstring

; 2237 : 		_Traits::assign(this->_Myptr()[this->_Mysize = _Newsize], _Elem());

	mov	QWORD PTR [rcx+48], rax

; 2238 : 		}
; 2239 : 
; 2240 : 	bool _Grow(size_type _Newsize,
; 2241 : 		bool _Trim = false)
; 2242 : 		{	// ensure buffer is big enough, trim to size if _Trim is true
; 2243 : 		if (max_size() < _Newsize)
; 2244 : 			_Xlen();	// result too long
; 2245 : 		if (this->_Myres < _Newsize)
; 2246 : 			_Copy(_Newsize, this->_Mysize);	// reallocate to grow
; 2247 : 		else if (_Trim && _Newsize < this->_BUF_SIZE)
; 2248 : 			_Tidy(true,	// copy and deallocate if trimming to small string
; 2249 : 				_Newsize < this->_Mysize ? _Newsize : this->_Mysize);
; 2250 : 		else if (_Newsize == 0)
; 2251 : 			_Eos(0);	// new size is zero, just null terminate
; 2252 : 		return (0 < _Newsize);	// return true only if more work to do
; 2253 : 		}
; 2254 : 
; 2255 : 	bool _Inside(const _Elem *_Ptr)
; 2256 : 		{	// test if _Ptr points inside string
; 2257 : 		if (_Ptr == 0 || _Ptr < this->_Myptr()
; 2258 : 			|| this->_Myptr() + this->_Mysize <= _Ptr)
; 2259 : 			return (false);	// don't ask
; 2260 : 		else
; 2261 : 			return (true);
; 2262 : 		}
; 2263 : 
; 2264 : 	static size_type _Pdif(const_iterator _P2,
; 2265 : 		const_iterator _P1)
; 2266 : 		{	// compute safe iterator difference
; 2267 : 		return (_STRING_ITER_BASE(_P2) == 0 ? 0 : _P2 - _P1);
; 2268 : 		}
; 2269 : 
; 2270 : 	void _Tidy(bool _Built = false,
; 2271 : 		size_type _Newsize = 0)
; 2272 : 		{	// initialize buffer, deallocating any storage
; 2273 : 		if (!_Built)
; 2274 : 			;
; 2275 : 		else if (this->_BUF_SIZE <= this->_Myres)
; 2276 : 			{	// copy any leftovers to small buffer and deallocate
; 2277 : 			pointer _Ptr = this->_Bx._Ptr;
; 2278 : 			this->_Getal().destroy(&this->_Bx._Ptr);
; 2279 : 			if (0 < _Newsize)
; 2280 : 				_Traits::copy(this->_Bx._Buf,
; 2281 : 					_STD addressof(*_Ptr), _Newsize);
; 2282 : 			this->_Getal().deallocate(_Ptr, this->_Myres + 1);
; 2283 : 			}
; 2284 : 		this->_Myres = this->_BUF_SIZE - 1;

	mov	QWORD PTR [rcx+56], 15
; File d:\program files (x86)\microsoft visual studio 12.0\vc\include\iosfwd

; 564  : 		_Left = _Right;

	mov	BYTE PTR [rcx+32], al
; File d:\program files (x86)\microsoft visual studio 12.0\vc\include\xstring

; 2237 : 		_Traits::assign(this->_Myptr()[this->_Mysize = _Newsize], _Elem());

	mov	QWORD PTR [rcx+80], rax

; 2238 : 		}
; 2239 : 
; 2240 : 	bool _Grow(size_type _Newsize,
; 2241 : 		bool _Trim = false)
; 2242 : 		{	// ensure buffer is big enough, trim to size if _Trim is true
; 2243 : 		if (max_size() < _Newsize)
; 2244 : 			_Xlen();	// result too long
; 2245 : 		if (this->_Myres < _Newsize)
; 2246 : 			_Copy(_Newsize, this->_Mysize);	// reallocate to grow
; 2247 : 		else if (_Trim && _Newsize < this->_BUF_SIZE)
; 2248 : 			_Tidy(true,	// copy and deallocate if trimming to small string
; 2249 : 				_Newsize < this->_Mysize ? _Newsize : this->_Mysize);
; 2250 : 		else if (_Newsize == 0)
; 2251 : 			_Eos(0);	// new size is zero, just null terminate
; 2252 : 		return (0 < _Newsize);	// return true only if more work to do
; 2253 : 		}
; 2254 : 
; 2255 : 	bool _Inside(const _Elem *_Ptr)
; 2256 : 		{	// test if _Ptr points inside string
; 2257 : 		if (_Ptr == 0 || _Ptr < this->_Myptr()
; 2258 : 			|| this->_Myptr() + this->_Mysize <= _Ptr)
; 2259 : 			return (false);	// don't ask
; 2260 : 		else
; 2261 : 			return (true);
; 2262 : 		}
; 2263 : 
; 2264 : 	static size_type _Pdif(const_iterator _P2,
; 2265 : 		const_iterator _P1)
; 2266 : 		{	// compute safe iterator difference
; 2267 : 		return (_STRING_ITER_BASE(_P2) == 0 ? 0 : _P2 - _P1);
; 2268 : 		}
; 2269 : 
; 2270 : 	void _Tidy(bool _Built = false,
; 2271 : 		size_type _Newsize = 0)
; 2272 : 		{	// initialize buffer, deallocating any storage
; 2273 : 		if (!_Built)
; 2274 : 			;
; 2275 : 		else if (this->_BUF_SIZE <= this->_Myres)
; 2276 : 			{	// copy any leftovers to small buffer and deallocate
; 2277 : 			pointer _Ptr = this->_Bx._Ptr;
; 2278 : 			this->_Getal().destroy(&this->_Bx._Ptr);
; 2279 : 			if (0 < _Newsize)
; 2280 : 				_Traits::copy(this->_Bx._Buf,
; 2281 : 					_STD addressof(*_Ptr), _Newsize);
; 2282 : 			this->_Getal().deallocate(_Ptr, this->_Myres + 1);
; 2283 : 			}
; 2284 : 		this->_Myres = this->_BUF_SIZE - 1;

	mov	QWORD PTR [rcx+88], 15
; File d:\program files (x86)\microsoft visual studio 12.0\vc\include\iosfwd

; 564  : 		_Left = _Right;

	mov	BYTE PTR [rcx+64], al
; File e:\jsoncpp-master\src\lib_json\json_writer.cpp

; 403  :     : rightMargin_(74), indentSize_(3), addChildValues_() {}

	mov	BYTE PTR [rcx+104], al
	mov	DWORD PTR [rcx+96], 74			; 0000004aH
	mov	DWORD PTR [rcx+100], 3
	mov	rax, rcx
	ret	0
??0StyledWriter@Json@@QEAA@XZ ENDP			; Json::StyledWriter::StyledWriter
_TEXT	ENDS
; Function compile flags: /Ogtpy
; File e:\jsoncpp-master\src\lib_json\json_writer.cpp
; File d:\program files (x86)\microsoft visual studio 12.0\vc\include\xstring
; File e:\jsoncpp-master\src\lib_json\json_writer.cpp
; File d:\program files (x86)\microsoft visual studio 12.0\vc\include\xstring
; File d:\program files (x86)\microsoft visual studio 12.0\vc\include\xstddef
; File d:\program files (x86)\microsoft visual studio 12.0\vc\include\xstring
; File d:\program files (x86)\microsoft visual studio 12.0\vc\include\iosfwd
; File e:\jsoncpp-master\src\lib_json\json_writer.cpp
; File d:\program files (x86)\microsoft visual studio 12.0\vc\include\xstring
; File d:\program files (x86)\microsoft visual studio 12.0\vc\include\xstddef
; File e:\jsoncpp-master\src\lib_json\json_writer.cpp
; File d:\program files (x86)\microsoft visual studio 12.0\vc\include\iosfwd
; File e:\jsoncpp-master\src\lib_json\json_writer.cpp
; File d:\program files (x86)\microsoft visual studio 12.0\vc\include\xstring
; File d:\program files (x86)\microsoft visual studio 12.0\vc\include\iosfwd
; File d:\program files (x86)\microsoft visual studio 12.0\vc\include\xstring
; File e:\jsoncpp-master\src\lib_json\json_writer.cpp
;	COMDAT ?write@StyledWriter@Json@@UEAA?AV?$basic_string@DU?$char_traits@D@std@@V?$allocator@D@2@@std@@AEBVValue@2@@Z
_TEXT	SEGMENT
$T1 = 32
this$ = 64
__$ReturnUdt$ = 72
root$ = 80
?write@StyledWriter@Json@@UEAA?AV?$basic_string@DU?$char_traits@D@std@@V?$allocator@D@2@@std@@AEBVValue@2@@Z PROC ; Json::StyledWriter::write, COMDAT

; 405  : JSONCPP_STRING StyledWriter::write(const Value& root) {

$LN80:
	mov	QWORD PTR [rsp+8], rbx
	mov	QWORD PTR [rsp+16], rbp
	mov	QWORD PTR [rsp+24], rsi
	mov	QWORD PTR [rsp+32], rdi
	push	r14
	sub	rsp, 48					; 00000030H
	xor	r14d, r14d
; File d:\program files (x86)\microsoft visual studio 12.0\vc\include\xstring

; 513  : 			: this->_Bx._Buf);

	cmp	QWORD PTR [rcx+56], 16
; File e:\jsoncpp-master\src\lib_json\json_writer.cpp

; 405  : JSONCPP_STRING StyledWriter::write(const Value& root) {

	mov	rbp, r8
	mov	rsi, rdx
	mov	rdi, rcx
	mov	DWORD PTR $T1[rsp], r14d
; File d:\program files (x86)\microsoft visual studio 12.0\vc\include\xstring

; 2237 : 		_Traits::assign(this->_Myptr()[this->_Mysize = _Newsize], _Elem());

	mov	QWORD PTR [rcx+48], r14

; 513  : 			: this->_Bx._Buf);

	jb	SHORT $LN11@write
; File d:\program files (x86)\microsoft visual studio 12.0\vc\include\xstddef

; 95   : 		reinterpret_cast<const volatile char&>(_Val)))));

	mov	rax, QWORD PTR [rcx+32]
; File d:\program files (x86)\microsoft visual studio 12.0\vc\include\xstring

; 513  : 			: this->_Bx._Buf);

	jmp	SHORT $LN12@write
$LN11@write:
	lea	rax, QWORD PTR [rcx+32]
$LN12@write:
; File d:\program files (x86)\microsoft visual studio 12.0\vc\include\iosfwd

; 564  : 		_Left = _Right;

	mov	BYTE PTR [rax], r14b
; File e:\jsoncpp-master\src\lib_json\json_writer.cpp

; 408  :   indentString_.clear();

	lea	rax, QWORD PTR [rcx+64]
	mov	BYTE PTR [rcx+104], r14b
; File d:\program files (x86)\microsoft visual studio 12.0\vc\include\xstring

; 513  : 			: this->_Bx._Buf);

	cmp	QWORD PTR [rax+24], 16

; 2237 : 		_Traits::assign(this->_Myptr()[this->_Mysize = _Newsize], _Elem());

	mov	QWORD PTR [rax+16], r14

; 513  : 			: this->_Bx._Buf);

	jb	SHORT $LN23@write
; File d:\program files (x86)\microsoft visual studio 12.0\vc\include\xstddef

; 95   : 		reinterpret_cast<const volatile char&>(_Val)))));

	mov	rax, QWORD PTR [rax]
$LN23@write:
; File e:\jsoncpp-master\src\lib_json\json_writer.cpp

; 409  :   writeCommentBeforeValue(root);

	mov	rdx, r8
; File d:\program files (x86)\microsoft visual studio 12.0\vc\include\iosfwd

; 564  : 		_Left = _Right;

	mov	BYTE PTR [rax], r14b
; File e:\jsoncpp-master\src\lib_json\json_writer.cpp

; 409  :   writeCommentBeforeValue(root);

	call	?writeCommentBeforeValue@StyledWriter@Json@@AEAAXAEBVValue@2@@Z ; Json::StyledWriter::writeCommentBeforeValue

; 410  :   writeValue(root);

	mov	rdx, rbp
	mov	rcx, rdi
	call	?writeValue@StyledWriter@Json@@AEAAXAEBVValue@2@@Z ; Json::StyledWriter::writeValue

; 411  :   writeCommentAfterValueOnSameLine(root);

	mov	rdx, rbp
	mov	rcx, rdi
	call	?writeCommentAfterValueOnSameLine@StyledWriter@Json@@AEAAXAEBVValue@2@@Z ; Json::StyledWriter::writeCommentAfterValueOnSameLine
; File d:\program files (x86)\microsoft visual studio 12.0\vc\include\xstring

; 1087 : 		return (append(_Ptr, _Traits::length(_Ptr)));

	lea	rdx, OFFSET FLAT:??_C@_01EEMJAFIK@?6?$AA@
	lea	rcx, QWORD PTR [rdi+32]
	mov	r8d, 1
	call	?append@?$basic_string@DU?$char_traits@D@std@@V?$allocator@D@2@@std@@QEAAAEAV12@PEBD_K@Z ; std::basic_string<char,std::char_traits<char>,std::allocator<char> >::append

; 2238 : 		}
; 2239 : 
; 2240 : 	bool _Grow(size_type _Newsize,
; 2241 : 		bool _Trim = false)
; 2242 : 		{	// ensure buffer is big enough, trim to size if _Trim is true
; 2243 : 		if (max_size() < _Newsize)
; 2244 : 			_Xlen();	// result too long
; 2245 : 		if (this->_Myres < _Newsize)
; 2246 : 			_Copy(_Newsize, this->_Mysize);	// reallocate to grow
; 2247 : 		else if (_Trim && _Newsize < this->_BUF_SIZE)
; 2248 : 			_Tidy(true,	// copy and deallocate if trimming to small string
; 2249 : 				_Newsize < this->_Mysize ? _Newsize : this->_Mysize);
; 2250 : 		else if (_Newsize == 0)
; 2251 : 			_Eos(0);	// new size is zero, just null terminate
; 2252 : 		return (0 < _Newsize);	// return true only if more work to do
; 2253 : 		}
; 2254 : 
; 2255 : 	bool _Inside(const _Elem *_Ptr)
; 2256 : 		{	// test if _Ptr points inside string
; 2257 : 		if (_Ptr == 0 || _Ptr < this->_Myptr()
; 2258 : 			|| this->_Myptr() + this->_Mysize <= _Ptr)
; 2259 : 			return (false);	// don't ask
; 2260 : 		else
; 2261 : 			return (true);
; 2262 : 		}
; 2263 : 
; 2264 : 	static size_type _Pdif(const_iterator _P2,
; 2265 : 		const_iterator _P1)
; 2266 : 		{	// compute safe iterator difference
; 2267 : 		return (_STRING_ITER_BASE(_P2) == 0 ? 0 : _P2 - _P1);
; 2268 : 		}
; 2269 : 
; 2270 : 	void _Tidy(bool _Built = false,
; 2271 : 		size_type _Newsize = 0)
; 2272 : 		{	// initialize buffer, deallocating any storage
; 2273 : 		if (!_Built)
; 2274 : 			;
; 2275 : 		else if (this->_BUF_SIZE <= this->_Myres)
; 2276 : 			{	// copy any leftovers to small buffer and deallocate
; 2277 : 			pointer _Ptr = this->_Bx._Ptr;
; 2278 : 			this->_Getal().destroy(&this->_Bx._Ptr);
; 2279 : 			if (0 < _Newsize)
; 2280 : 				_Traits::copy(this->_Bx._Buf,
; 2281 : 					_STD addressof(*_Ptr), _Newsize);
; 2282 : 			this->_Getal().deallocate(_Ptr, this->_Myres + 1);
; 2283 : 			}
; 2284 : 		this->_Myres = this->_BUF_SIZE - 1;

	mov	QWORD PTR [rsi+24], 15

; 2237 : 		_Traits::assign(this->_Myptr()[this->_Mysize = _Newsize], _Elem());

	mov	QWORD PTR [rsi+16], r14

; 726  : 		assign(_Right, 0, npos);

	lea	rdx, QWORD PTR [rdi+32]
	or	r9, -1
	xor	r8d, r8d
	mov	rcx, rsi
; File d:\program files (x86)\microsoft visual studio 12.0\vc\include\iosfwd

; 564  : 		_Left = _Right;

	mov	BYTE PTR [rsi], r14b
; File d:\program files (x86)\microsoft visual studio 12.0\vc\include\xstring

; 726  : 		assign(_Right, 0, npos);

	call	?assign@?$basic_string@DU?$char_traits@D@std@@V?$allocator@D@2@@std@@QEAAAEAV12@AEBV12@_K1@Z ; std::basic_string<char,std::char_traits<char>,std::allocator<char> >::assign
; File e:\jsoncpp-master\src\lib_json\json_writer.cpp

; 414  : }

	mov	rbx, QWORD PTR [rsp+64]
	mov	rbp, QWORD PTR [rsp+72]
	mov	rdi, QWORD PTR [rsp+88]
	mov	rax, rsi
	mov	rsi, QWORD PTR [rsp+80]
	add	rsp, 48					; 00000030H
	pop	r14
	ret	0
?write@StyledWriter@Json@@UEAA?AV?$basic_string@DU?$char_traits@D@std@@V?$allocator@D@2@@std@@AEBVValue@2@@Z ENDP ; Json::StyledWriter::write
_TEXT	ENDS
; Function compile flags: /Ogtpy
; File e:\jsoncpp-master\src\lib_json\json_writer.cpp
;	COMDAT ??1Writer@Json@@UEAA@XZ
_TEXT	SEGMENT
this$ = 8
??1Writer@Json@@UEAA@XZ PROC				; Json::Writer::~Writer, COMDAT

; 322  : Writer::~Writer() {}

	lea	rax, OFFSET FLAT:??_7Writer@Json@@6B@
	mov	QWORD PTR [rcx], rax
	ret	0
??1Writer@Json@@UEAA@XZ ENDP				; Json::Writer::~Writer
_TEXT	ENDS
; Function compile flags: /Ogtpy
; File d:\program files (x86)\microsoft visual studio 12.0\vc\include\math.h
;	COMDAT ?fpclassify@@YAHN@Z
_TEXT	SEGMENT
_X$ = 48
?fpclassify@@YAHN@Z PROC				; fpclassify, COMDAT

; 310  : {

$LN4:
	movsdx	QWORD PTR [rsp+8], xmm0
	sub	rsp, 40					; 00000028H

; 311  :     return (_dtest(&_X));

	lea	rcx, QWORD PTR _X$[rsp]
	call	QWORD PTR __imp__dtest
	cwde

; 312  : }

	add	rsp, 40					; 00000028H
	ret	0
?fpclassify@@YAHN@Z ENDP				; fpclassify
_TEXT	ENDS
; Function compile flags: /Ogtpy
; File d:\program files (x86)\microsoft visual studio 12.0\vc\include\string.h
;	COMDAT ?strstr@@YAPEADPEADPEBD@Z
_TEXT	SEGMENT
_Str$ = 8
_SubStr$ = 16
?strstr@@YAPEADPEADPEBD@Z PROC				; strstr, COMDAT

; 228  :         { return (char*)strstr((const char*)_Str, _SubStr); }

	rex_jmp	QWORD PTR __imp_strstr
?strstr@@YAPEADPEADPEBD@Z ENDP				; strstr
_TEXT	ENDS
; Function compile flags: /Ogtpy
; File d:\program files (x86)\microsoft visual studio 12.0\vc\include\ios
; File d:\program files (x86)\microsoft visual studio 12.0\vc\include\xiosbase
; File d:\program files (x86)\microsoft visual studio 12.0\vc\include\ios
;	COMDAT ?uppercase@std@@YAAEAVios_base@1@AEAV21@@Z
_TEXT	SEGMENT
_Iosbase$ = 8
?uppercase@std@@YAAEAVios_base@1@AEAV21@@Z PROC		; std::uppercase, COMDAT
; File d:\program files (x86)\microsoft visual studio 12.0\vc\include\xiosbase

; 381  : 			| ((int)_Newfmtflags & (int)_Fmtmask));

	or	DWORD PTR [rcx+24], 4
; File d:\program files (x86)\microsoft visual studio 12.0\vc\include\ios

; 354  : 	return (_Iosbase);

	mov	rax, rcx

; 355  : 	}

	ret	0
?uppercase@std@@YAAEAVios_base@1@AEAV21@@Z ENDP		; std::uppercase
_TEXT	ENDS
; Function compile flags: /Ogtpy
; File e:\jsoncpp-master\include\json\writer.h
; File d:\program files (x86)\microsoft visual studio 12.0\vc\include\xstring
; File d:\program files (x86)\microsoft visual studio 12.0\vc\include\xmemory0
; File d:\program files (x86)\microsoft visual studio 12.0\vc\include\xstring
; File e:\jsoncpp-master\src\lib_json\json_writer.cpp
; File d:\program files (x86)\microsoft visual studio 12.0\vc\include\iosfwd
; File e:\jsoncpp-master\src\lib_json\json_writer.cpp
; File e:\jsoncpp-master\include\json\writer.h
;	COMDAT ??1FastWriter@Json@@UEAA@XZ
_TEXT	SEGMENT
this$ = 48
??1FastWriter@Json@@UEAA@XZ PROC			; Json::FastWriter::~FastWriter, COMDAT

; 163  :   ~FastWriter() JSONCPP_OVERRIDE {}

$LN38:
	push	rbx
	sub	rsp, 32					; 00000020H
	lea	rax, OFFSET FLAT:??_7FastWriter@Json@@6B@
	mov	rbx, rcx
	mov	QWORD PTR [rcx], rax
; File d:\program files (x86)\microsoft visual studio 12.0\vc\include\xstring

; 2275 : 		else if (this->_BUF_SIZE <= this->_Myres)

	cmp	QWORD PTR [rcx+32], 16
	jb	SHORT $LN23@FastWriter
; File d:\program files (x86)\microsoft visual studio 12.0\vc\include\xmemory0

; 573  : 		::operator delete(_Ptr);

	mov	rcx, QWORD PTR [rcx+8]
	call	QWORD PTR __imp_??3@YAXPEAX@Z
$LN23@FastWriter:
; File d:\program files (x86)\microsoft visual studio 12.0\vc\include\xstring

; 2284 : 		this->_Myres = this->_BUF_SIZE - 1;

	mov	QWORD PTR [rbx+32], 15

; 2237 : 		_Traits::assign(this->_Myptr()[this->_Mysize = _Newsize], _Elem());

	mov	QWORD PTR [rbx+24], 0
; File e:\jsoncpp-master\src\lib_json\json_writer.cpp

; 322  : Writer::~Writer() {}

	lea	rax, OFFSET FLAT:??_7Writer@Json@@6B@
; File d:\program files (x86)\microsoft visual studio 12.0\vc\include\iosfwd

; 564  : 		_Left = _Right;

	mov	BYTE PTR [rbx+8], 0
; File e:\jsoncpp-master\src\lib_json\json_writer.cpp

; 322  : Writer::~Writer() {}

	mov	QWORD PTR [rbx], rax
; File e:\jsoncpp-master\include\json\writer.h

; 163  :   ~FastWriter() JSONCPP_OVERRIDE {}

	add	rsp, 32					; 00000020H
	pop	rbx
	ret	0
??1FastWriter@Json@@UEAA@XZ ENDP			; Json::FastWriter::~FastWriter
_TEXT	ENDS
; Function compile flags: /Ogtpy
; File e:\jsoncpp-master\include\json\writer.h
; File d:\program files (x86)\microsoft visual studio 12.0\vc\include\xstring
; File d:\program files (x86)\microsoft visual studio 12.0\vc\include\xmemory0
; File d:\program files (x86)\microsoft visual studio 12.0\vc\include\xstring
; File e:\jsoncpp-master\src\lib_json\json_writer.cpp
; File d:\program files (x86)\microsoft visual studio 12.0\vc\include\iosfwd
; File e:\jsoncpp-master\src\lib_json\json_writer.cpp
;	COMDAT ??_GFastWriter@Json@@UEAAPEAXI@Z
_TEXT	SEGMENT
this$ = 48
__flags$ = 56
??_GFastWriter@Json@@UEAAPEAXI@Z PROC			; Json::FastWriter::`scalar deleting destructor', COMDAT
$LN42:
	mov	QWORD PTR [rsp+8], rbx
	push	rdi
	sub	rsp, 32					; 00000020H
; File e:\jsoncpp-master\include\json\writer.h

; 163  :   ~FastWriter() JSONCPP_OVERRIDE {}

	lea	rax, OFFSET FLAT:??_7FastWriter@Json@@6B@
	mov	edi, edx
	mov	rbx, rcx
	mov	QWORD PTR [rcx], rax
; File d:\program files (x86)\microsoft visual studio 12.0\vc\include\xstring

; 2275 : 		else if (this->_BUF_SIZE <= this->_Myres)

	cmp	QWORD PTR [rcx+32], 16
	jb	SHORT $LN26@scalar
; File d:\program files (x86)\microsoft visual studio 12.0\vc\include\xmemory0

; 573  : 		::operator delete(_Ptr);

	mov	rcx, QWORD PTR [rcx+8]
	call	QWORD PTR __imp_??3@YAXPEAX@Z
$LN26@scalar:
; File d:\program files (x86)\microsoft visual studio 12.0\vc\include\xstring

; 2284 : 		this->_Myres = this->_BUF_SIZE - 1;

	mov	QWORD PTR [rbx+32], 15

; 2237 : 		_Traits::assign(this->_Myptr()[this->_Mysize = _Newsize], _Elem());

	mov	QWORD PTR [rbx+24], 0
; File e:\jsoncpp-master\src\lib_json\json_writer.cpp

; 322  : Writer::~Writer() {}

	lea	rax, OFFSET FLAT:??_7Writer@Json@@6B@
; File d:\program files (x86)\microsoft visual studio 12.0\vc\include\iosfwd

; 564  : 		_Left = _Right;

	mov	BYTE PTR [rbx+8], 0
; File e:\jsoncpp-master\src\lib_json\json_writer.cpp

; 322  : Writer::~Writer() {}

	mov	QWORD PTR [rbx], rax
	test	dil, 1
	je	SHORT $LN40@scalar
	mov	rcx, rbx
	call	QWORD PTR __imp_??3@YAXPEAX@Z
$LN40@scalar:
	mov	rax, rbx
	mov	rbx, QWORD PTR [rsp+48]
	add	rsp, 32					; 00000020H
	pop	rdi
	ret	0
??_GFastWriter@Json@@UEAAPEAXI@Z ENDP			; Json::FastWriter::`scalar deleting destructor'
_TEXT	ENDS
; Function compile flags: /Ogtpy
; File e:\jsoncpp-master\src\lib_json\json_tool.h
;	COMDAT ?isControlCharacter@Json@@YA_ND@Z
_TEXT	SEGMENT
ch$ = 8
?isControlCharacter@Json@@YA_ND@Z PROC			; Json::isControlCharacter, COMDAT

; 65   : static inline bool isControlCharacter(char ch) { return ch > 0 && ch <= 0x1F; }

	dec	cl
	cmp	cl, 30
	setbe	al
	ret	0
?isControlCharacter@Json@@YA_ND@Z ENDP			; Json::isControlCharacter
_TEXT	ENDS
; Function compile flags: /Ogtpy
; File e:\jsoncpp-master\src\lib_json\json_tool.h
;	COMDAT ?uintToString@Json@@YAX_KAEAPEAD@Z
_TEXT	SEGMENT
value$ = 8
current$ = 16
?uintToString@Json@@YAX_KAEAPEAD@Z PROC			; Json::uintToString, COMDAT

; 82   :   *--current = 0;

	dec	QWORD PTR [rdx]
	mov	r9, QWORD PTR [rdx]
	mov	r10, rdx
	mov	BYTE PTR [r9], 0
	mov	r11, -3689348814741910323		; cccccccccccccccdH
	npad	9
$LL3@uintToStri:

; 83   :   do {
; 84   :     *--current = static_cast<char>(value % 10U + static_cast<unsigned>('0'));

	dec	r9
	mov	rax, r11
	mov	QWORD PTR [r10], r9
	mul	rcx
	shr	rdx, 3
	movzx	eax, dl
	shl	al, 2
	lea	r8d, DWORD PTR [rax+rdx]
	add	r8b, r8b
	sub	cl, r8b
	add	cl, 48					; 00000030H
	mov	BYTE PTR [r9], cl

; 85   :     value /= 10;

	mov	rcx, rdx

; 86   :   } while (value != 0);

	test	rdx, rdx
	jne	SHORT $LL3@uintToStri

; 87   : }

	ret	0
?uintToString@Json@@YAX_KAEAPEAD@Z ENDP			; Json::uintToString
_TEXT	ENDS
; Function compile flags: /Ogtpy
; File e:\jsoncpp-master\src\lib_json\json_tool.h
;	COMDAT ?fixNumericLocale@Json@@YAXPEAD0@Z
_TEXT	SEGMENT
begin$ = 8
end$ = 16
?fixNumericLocale@Json@@YAXPEAD0@Z PROC			; Json::fixNumericLocale, COMDAT

; 94   : static inline void fixNumericLocale(char* begin, char* end) {

	xor	eax, eax
	mov	r8, rdx
	sub	r8, rcx
	cmp	rcx, rdx
	cmova	r8, rax

; 95   :   while (begin < end) {

	test	r8, r8
	je	SHORT $LN2@fixNumeric
$LL8@fixNumeric:

; 96   :     if (*begin == ',') {

	cmp	BYTE PTR [rcx], 44			; 0000002cH
	jne	SHORT $LN9@fixNumeric

; 97   :       *begin = '.';

	mov	BYTE PTR [rcx], 46			; 0000002eH
$LN9@fixNumeric:

; 98   :     }
; 99   :     ++begin;

	inc	rax
	inc	rcx
	cmp	rax, r8
	jb	SHORT $LL8@fixNumeric
$LN2@fixNumeric:

; 100  :   }
; 101  : }

	ret	0
?fixNumericLocale@Json@@YAXPEAD0@Z ENDP			; Json::fixNumericLocale
_TEXT	ENDS
; Function compile flags: /Ogtpy
; File e:\jsoncpp-master\src\lib_json\json_writer.cpp
; File e:\jsoncpp-master\src\lib_json\json_tool.h
; File e:\jsoncpp-master\src\lib_json\json_writer.cpp
; File e:\jsoncpp-master\src\lib_json\json_tool.h
; File e:\jsoncpp-master\src\lib_json\json_writer.cpp
;	COMDAT ?containsControlCharacter@Json@@YA_NPEBD@Z
_TEXT	SEGMENT
str$ = 8
?containsControlCharacter@Json@@YA_NPEBD@Z PROC		; Json::containsControlCharacter, COMDAT

; 85   :   while (*str) {

	movzx	eax, BYTE PTR [rcx]
	test	al, al
	je	SHORT $LN2@containsCo
	npad	9
$LL3@containsCo:
; File e:\jsoncpp-master\src\lib_json\json_tool.h

; 65   : static inline bool isControlCharacter(char ch) { return ch > 0 && ch <= 0x1F; }

	dec	al
; File e:\jsoncpp-master\src\lib_json\json_writer.cpp

; 86   :     if (isControlCharacter(*(str++)))

	lea	rcx, QWORD PTR [rcx+1]
; File e:\jsoncpp-master\src\lib_json\json_tool.h

; 65   : static inline bool isControlCharacter(char ch) { return ch > 0 && ch <= 0x1F; }

	cmp	al, 30
; File e:\jsoncpp-master\src\lib_json\json_writer.cpp

; 86   :     if (isControlCharacter(*(str++)))

	jbe	SHORT $LN11@containsCo

; 85   :   while (*str) {

	movzx	eax, BYTE PTR [rcx]
	test	al, al
	jne	SHORT $LL3@containsCo
$LN2@containsCo:

; 88   :   }
; 89   :   return false;

	xor	al, al

; 90   : }

	ret	0
$LN11@containsCo:

; 87   :       return true;

	mov	al, 1

; 90   : }

	ret	0
?containsControlCharacter@Json@@YA_NPEBD@Z ENDP		; Json::containsControlCharacter
_TEXT	ENDS
; Function compile flags: /Ogtpy
; File e:\jsoncpp-master\src\lib_json\json_writer.cpp
; File e:\jsoncpp-master\src\lib_json\json_tool.h
; File e:\jsoncpp-master\src\lib_json\json_writer.cpp
;	COMDAT ?containsControlCharacter0@Json@@YA_NPEBDI@Z
_TEXT	SEGMENT
str$ = 8
len$ = 16
?containsControlCharacter0@Json@@YA_NPEBDI@Z PROC	; Json::containsControlCharacter0, COMDAT

; 93   :   char const* end = str + len;

	mov	r8d, edx
	add	r8, rcx
$LN20@containsCo:

; 94   :   while (end != str) {

	cmp	r8, rcx
	je	SHORT $LN3@containsCo

; 95   :     if (isControlCharacter(*str) || 0==*str)

	movzx	edx, BYTE PTR [rcx]
; File e:\jsoncpp-master\src\lib_json\json_tool.h

; 65   : static inline bool isControlCharacter(char ch) { return ch > 0 && ch <= 0x1F; }

	lea	eax, DWORD PTR [rdx-1]
	cmp	al, 30
	jbe	SHORT $LN12@containsCo
; File e:\jsoncpp-master\src\lib_json\json_writer.cpp

; 95   :     if (isControlCharacter(*str) || 0==*str)

	test	dl, dl
	je	SHORT $LN12@containsCo

; 97   :     ++str;

	inc	rcx

; 94   :   while (end != str) {

	jmp	SHORT $LN20@containsCo
$LN12@containsCo:

; 96   :       return true;

	mov	al, 1

; 100  : }

	ret	0
$LN3@containsCo:

; 98   :   }
; 99   :   return false;

	xor	al, al

; 100  : }

	ret	0
?containsControlCharacter0@Json@@YA_NPEBDI@Z ENDP	; Json::containsControlCharacter0
_TEXT	ENDS
; Function compile flags: /Ogtpy
; File e:\jsoncpp-master\src\lib_json\json_writer.cpp
; File d:\program files (x86)\microsoft visual studio 12.0\vc\include\math.h
; File e:\jsoncpp-master\src\lib_json\json_writer.cpp
; File d:\program files (x86)\microsoft visual studio 12.0\vc\include\string.h
; File e:\jsoncpp-master\src\lib_json\json_writer.cpp
; File d:\program files (x86)\microsoft visual studio 12.0\vc\include\string.h
; File e:\jsoncpp-master\src\lib_json\json_writer.cpp
; File d:\program files (x86)\microsoft visual studio 12.0\vc\include\string.h
; File e:\jsoncpp-master\src\lib_json\json_writer.cpp
; File e:\jsoncpp-master\src\lib_json\json_tool.h
; File e:\jsoncpp-master\src\lib_json\json_writer.cpp
; File e:\jsoncpp-master\src\lib_json\json_tool.h
; File d:\program files (x86)\microsoft visual studio 12.0\vc\include\xstring
; File d:\program files (x86)\microsoft visual studio 12.0\vc\include\iosfwd
; File d:\program files (x86)\microsoft visual studio 12.0\vc\include\xstring
; File e:\jsoncpp-master\src\lib_json\json_writer.cpp
;	COMDAT ?valueToString@?A0xcff6a387@Json@@YA?AV?$basic_string@DU?$char_traits@D@std@@V?$allocator@D@2@@std@@N_NI@Z
_TEXT	SEGMENT
$T1 = 32
_X$ = 40
buffer$ = 48
formatString$ = 88
__$ArrayPad$ = 96
__$ReturnUdt$ = 160
value$ = 168
useSpecialFloats$ = 176
precision$ = 184
?valueToString@?A0xcff6a387@Json@@YA?AV?$basic_string@DU?$char_traits@D@std@@V?$allocator@D@2@@std@@N_NI@Z PROC ; Json::`anonymous namespace'::valueToString, COMDAT

; 139  : JSONCPP_STRING valueToString(double value, bool useSpecialFloats, unsigned int precision) {

$LN81:
	push	rbx
	push	rsi
	push	rdi
	sub	rsp, 128				; 00000080H
	movaps	XMMWORD PTR [rsp+112], xmm6
	mov	rax, QWORD PTR __security_cookie
	xor	rax, rsp
	mov	QWORD PTR __$ArrayPad$[rsp], rax
	mov	rdi, rcx
	movzx	esi, r8b

; 140  :   // Allocate a buffer that is more than large enough to store the 16 digits of
; 141  :   // precision requested below.
; 142  :   char buffer[36];
; 143  :   int len = -1;
; 144  : 
; 145  :   char formatString[6];
; 146  :   sprintf(formatString, "%%.%dg", precision);

	lea	rdx, OFFSET FLAT:??_C@_06CEAIPCMK@?$CF?$CF?4?$CFdg?$AA@
	lea	rcx, QWORD PTR formatString$[rsp]
	xor	ebx, ebx
	mov	r8d, r9d
	movaps	xmm6, xmm1
	mov	DWORD PTR $T1[rsp], ebx
	call	QWORD PTR __imp_sprintf
; File d:\program files (x86)\microsoft visual studio 12.0\vc\include\math.h

; 311  :     return (_dtest(&_X));

	lea	rcx, QWORD PTR _X$[rsp]

; 312  : }
; 313  : 
; 314  : inline __nothrow int fpclassify(long double _X)
; 315  : {
; 316  :     return (_ldtest(&_X));
; 317  : }
; 318  : 
; 319  : inline __nothrow bool signbit(float _X)
; 320  : {
; 321  :     return (_fdsign(_X) != 0);
; 322  : }
; 323  : 
; 324  : inline __nothrow bool signbit(double _X)
; 325  : {
; 326  :     return (_dsign(_X) != 0);
; 327  : }
; 328  : 
; 329  : inline __nothrow bool signbit(long double _X)
; 330  : {
; 331  :     return (_ldsign(_X) != 0);
; 332  : }
; 333  : 
; 334  : inline __nothrow int _fpcomp(float _X, float _Y)
; 335  : {
; 336  :     return (_fdpcomp(_X, _Y));
; 337  : }
; 338  : 
; 339  : inline __nothrow int _fpcomp(double _X, double _Y)
; 340  : {
; 341  :     return (_dpcomp(_X, _Y));
; 342  : }
; 343  : 
; 344  : inline __nothrow int _fpcomp(long double _X, long double _Y)
; 345  : {
; 346  :     return (_ldpcomp(_X, _Y));
; 347  : }
; 348  : 
; 349  : template<class _Trc, class _Tre> struct _Combined_type
; 350  : {	// determine combined type
; 351  :     typedef float _Type;	// (real, float) is float
; 352  : };
; 353  : 
; 354  : template<> struct _Combined_type<float, double>
; 355  : {	// determine combined type
; 356  :     typedef double _Type;
; 357  : };
; 358  : 
; 359  : template<> struct _Combined_type<float, long double>
; 360  : {	// determine combined type
; 361  :     typedef long double _Type;
; 362  : };
; 363  : 
; 364  : template<class _Ty, class _T2> struct _Real_widened
; 365  : {	// determine widened real type
; 366  :     typedef long double _Type;	// default is long double
; 367  : };
; 368  : 
; 369  : template<> struct _Real_widened<float, float>
; 370  : {	// determine widened real type
; 371  :     typedef float _Type;
; 372  : };
; 373  : 
; 374  : template<> struct _Real_widened<float, double>
; 375  : {	// determine widened real type
; 376  :     typedef double _Type;
; 377  : };
; 378  : 
; 379  : template<> struct _Real_widened<double, float>
; 380  : {	// determine widened real type
; 381  :     typedef double _Type;
; 382  : };
; 383  : 
; 384  : template<> struct _Real_widened<double, double>
; 385  : {	// determine widened real type
; 386  :     typedef double _Type;
; 387  : };
; 388  : 
; 389  : template<class _Ty> struct _Real_type
; 390  : {	// determine equivalent real type
; 391  :     typedef double _Type;	// default is double
; 392  : };
; 393  : 
; 394  : template<> struct _Real_type<float>
; 395  : {	// determine equivalent real type
; 396  :     typedef float _Type;
; 397  : };
; 398  : 
; 399  : template<> struct _Real_type<long double>
; 400  : {	// determine equivalent real type
; 401  :     typedef long double _Type;
; 402  : };
; 403  : 
; 404  : template<class _T1, class _T2> inline __nothrow int _fpcomp(_T1 _X, _T2 _Y)
; 405  : {	// compare _Left and _Right
; 406  :     typedef typename _Combined_type<float,
; 407  :         typename _Real_widened<
; 408  :         typename _Real_type<_T1>::_Type,
; 409  :         typename _Real_type<_T2>::_Type>::_Type>::_Type _Tw;
; 410  :     return (_fpcomp((_Tw)_X, (_Tw)_Y));
; 411  : }
; 412  : 
; 413  : template<class _Ty> inline __nothrow bool isfinite(_Ty _X)
; 414  : {
; 415  :     return (fpclassify(_X) <= 0);

	movsdx	QWORD PTR _X$[rsp], xmm6

; 311  :     return (_dtest(&_X));

	call	QWORD PTR __imp__dtest

; 312  : }
; 313  : 
; 314  : inline __nothrow int fpclassify(long double _X)
; 315  : {
; 316  :     return (_ldtest(&_X));
; 317  : }
; 318  : 
; 319  : inline __nothrow bool signbit(float _X)
; 320  : {
; 321  :     return (_fdsign(_X) != 0);
; 322  : }
; 323  : 
; 324  : inline __nothrow bool signbit(double _X)
; 325  : {
; 326  :     return (_dsign(_X) != 0);
; 327  : }
; 328  : 
; 329  : inline __nothrow bool signbit(long double _X)
; 330  : {
; 331  :     return (_ldsign(_X) != 0);
; 332  : }
; 333  : 
; 334  : inline __nothrow int _fpcomp(float _X, float _Y)
; 335  : {
; 336  :     return (_fdpcomp(_X, _Y));
; 337  : }
; 338  : 
; 339  : inline __nothrow int _fpcomp(double _X, double _Y)
; 340  : {
; 341  :     return (_dpcomp(_X, _Y));
; 342  : }
; 343  : 
; 344  : inline __nothrow int _fpcomp(long double _X, long double _Y)
; 345  : {
; 346  :     return (_ldpcomp(_X, _Y));
; 347  : }
; 348  : 
; 349  : template<class _Trc, class _Tre> struct _Combined_type
; 350  : {	// determine combined type
; 351  :     typedef float _Type;	// (real, float) is float
; 352  : };
; 353  : 
; 354  : template<> struct _Combined_type<float, double>
; 355  : {	// determine combined type
; 356  :     typedef double _Type;
; 357  : };
; 358  : 
; 359  : template<> struct _Combined_type<float, long double>
; 360  : {	// determine combined type
; 361  :     typedef long double _Type;
; 362  : };
; 363  : 
; 364  : template<class _Ty, class _T2> struct _Real_widened
; 365  : {	// determine widened real type
; 366  :     typedef long double _Type;	// default is long double
; 367  : };
; 368  : 
; 369  : template<> struct _Real_widened<float, float>
; 370  : {	// determine widened real type
; 371  :     typedef float _Type;
; 372  : };
; 373  : 
; 374  : template<> struct _Real_widened<float, double>
; 375  : {	// determine widened real type
; 376  :     typedef double _Type;
; 377  : };
; 378  : 
; 379  : template<> struct _Real_widened<double, float>
; 380  : {	// determine widened real type
; 381  :     typedef double _Type;
; 382  : };
; 383  : 
; 384  : template<> struct _Real_widened<double, double>
; 385  : {	// determine widened real type
; 386  :     typedef double _Type;
; 387  : };
; 388  : 
; 389  : template<class _Ty> struct _Real_type
; 390  : {	// determine equivalent real type
; 391  :     typedef double _Type;	// default is double
; 392  : };
; 393  : 
; 394  : template<> struct _Real_type<float>
; 395  : {	// determine equivalent real type
; 396  :     typedef float _Type;
; 397  : };
; 398  : 
; 399  : template<> struct _Real_type<long double>
; 400  : {	// determine equivalent real type
; 401  :     typedef long double _Type;
; 402  : };
; 403  : 
; 404  : template<class _T1, class _T2> inline __nothrow int _fpcomp(_T1 _X, _T2 _Y)
; 405  : {	// compare _Left and _Right
; 406  :     typedef typename _Combined_type<float,
; 407  :         typename _Real_widened<
; 408  :         typename _Real_type<_T1>::_Type,
; 409  :         typename _Real_type<_T2>::_Type>::_Type>::_Type _Tw;
; 410  :     return (_fpcomp((_Tw)_X, (_Tw)_Y));
; 411  : }
; 412  : 
; 413  : template<class _Ty> inline __nothrow bool isfinite(_Ty _X)
; 414  : {
; 415  :     return (fpclassify(_X) <= 0);

	test	ax, ax
; File e:\jsoncpp-master\src\lib_json\json_writer.cpp

; 151  :   if (isfinite(value)) {

	jg	SHORT $LN7@valueToStr

; 152  :     len = snprintf(buffer, sizeof(buffer), formatString, value);

	movaps	xmm3, xmm6
	lea	r8, QWORD PTR formatString$[rsp]
	lea	edx, QWORD PTR [rbx+36]
	lea	rcx, QWORD PTR buffer$[rsp]
	movd	r9, xmm3
	call	QWORD PTR __imp_sprintf_s
; File d:\program files (x86)\microsoft visual studio 12.0\vc\include\string.h

; 228  :         { return (char*)strstr((const char*)_Str, _SubStr); }

	lea	rdx, OFFSET FLAT:??_C@_01LFCBOECM@?4?$AA@
	lea	rcx, QWORD PTR buffer$[rsp]
; File e:\jsoncpp-master\src\lib_json\json_writer.cpp

; 152  :     len = snprintf(buffer, sizeof(buffer), formatString, value);

	mov	esi, eax
; File d:\program files (x86)\microsoft visual studio 12.0\vc\include\string.h

; 228  :         { return (char*)strstr((const char*)_Str, _SubStr); }

	call	QWORD PTR __imp_strstr
; File e:\jsoncpp-master\src\lib_json\json_writer.cpp

; 155  :     if (!strstr(buffer, ".") && !strstr(buffer, "e")) {

	test	rax, rax
	jne	$LN1@valueToStr
; File d:\program files (x86)\microsoft visual studio 12.0\vc\include\string.h

; 228  :         { return (char*)strstr((const char*)_Str, _SubStr); }

	lea	rdx, OFFSET FLAT:??_C@_01KGKMHCOC@e?$AA@
	lea	rcx, QWORD PTR buffer$[rsp]
	call	QWORD PTR __imp_strstr
; File e:\jsoncpp-master\src\lib_json\json_writer.cpp

; 155  :     if (!strstr(buffer, ".") && !strstr(buffer, "e")) {

	test	rax, rax
	jne	$LN1@valueToStr

; 156  :       strcat(buffer, ".0");

	lea	rcx, QWORD PTR buffer$[rsp]
	dec	rcx
$LL78@valueToStr:
	cmp	BYTE PTR [rcx+1], bl
	lea	rcx, QWORD PTR [rcx+1]
	jne	SHORT $LL78@valueToStr
	movzx	eax, WORD PTR ??_C@_02ONCLHLPE@?40?$AA@
	mov	WORD PTR [rcx], ax
	movzx	eax, BYTE PTR ??_C@_02ONCLHLPE@?40?$AA@+2
	mov	BYTE PTR [rcx+2], al

; 157  :     }
; 158  : 
; 159  :   } else {

	jmp	SHORT $LN1@valueToStr
$LN7@valueToStr:

; 160  :     // IEEE standard states that NaN values will not compare to themselves
; 161  :     if (value != value) {

	ucomisd	xmm6, xmm6
	jp	SHORT $LN77@valueToStr
	jne	SHORT $LN77@valueToStr

; 163  :     } else if (value < 0) {
; 164  :       len = snprintf(buffer, sizeof(buffer), useSpecialFloats ? "-Infinity" : "-1e+9999");

	xorps	xmm0, xmm0
	mov	edx, 36					; 00000024H
	lea	rcx, QWORD PTR buffer$[rsp]
	comisd	xmm0, xmm6
	jbe	SHORT $LN2@valueToStr
	lea	rax, OFFSET FLAT:??_C@_09BLDCEMOH@?9Infinity?$AA@
	lea	r8, OFFSET FLAT:??_C@_08JDOGHFII@?91e?$CL9999?$AA@

; 165  :     } else {

	jmp	SHORT $LN79@valueToStr
$LN2@valueToStr:

; 166  :       len = snprintf(buffer, sizeof(buffer), useSpecialFloats ? "Infinity" : "1e+9999");

	lea	rax, OFFSET FLAT:??_C@_08KEBCLIFP@Infinity?$AA@
	lea	r8, OFFSET FLAT:??_C@_07GDHDNLLL@1e?$CL9999?$AA@
	jmp	SHORT $LN79@valueToStr
$LN77@valueToStr:

; 162  :       len = snprintf(buffer, sizeof(buffer), useSpecialFloats ? "NaN" : "null");

	lea	rax, OFFSET FLAT:??_C@_03ICJPMMHB@NaN?$AA@
	lea	r8, OFFSET FLAT:??_C@_04MLLLIHIP@null?$AA@
	mov	edx, 36					; 00000024H
	lea	rcx, QWORD PTR buffer$[rsp]
$LN79@valueToStr:
	test	sil, sil
	cmovne	r8, rax
	call	QWORD PTR __imp_sprintf_s
	mov	esi, eax
$LN1@valueToStr:
; File e:\jsoncpp-master\src\lib_json\json_tool.h

; 95   :   while (begin < end) {

	movsxd	rax, esi
; File e:\jsoncpp-master\src\lib_json\json_writer.cpp

; 171  :   fixNumericLocale(buffer, buffer + len);

	lea	rcx, QWORD PTR buffer$[rsp]
	lea	rdx, QWORD PTR buffer$[rsp]
	add	rcx, rax
	lea	rax, QWORD PTR buffer$[rsp]
	mov	r8, rcx
	sub	r8, rax
	lea	rax, QWORD PTR buffer$[rsp]
	cmp	rax, rcx
	cmova	r8, rbx
; File e:\jsoncpp-master\src\lib_json\json_tool.h

; 95   :   while (begin < end) {

	test	r8, r8
	je	SHORT $LN21@valueToStr
	lea	rcx, QWORD PTR buffer$[rsp]
	neg	rcx
	npad	6
$LL71@valueToStr:

; 96   :     if (*begin == ',') {

	cmp	BYTE PTR [rdx], 44			; 0000002cH
	jne	SHORT $LN72@valueToStr

; 97   :       *begin = '.';

	mov	BYTE PTR [rdx], 46			; 0000002eH
$LN72@valueToStr:
	inc	rdx

; 95   :   while (begin < end) {

	lea	rax, QWORD PTR [rcx+rdx]
	cmp	rax, r8
	jb	SHORT $LL71@valueToStr
$LN21@valueToStr:
; File d:\program files (x86)\microsoft visual studio 12.0\vc\include\xstring

; 2284 : 		this->_Myres = this->_BUF_SIZE - 1;

	mov	QWORD PTR [rdi+24], 15

; 1170 : 		}
; 1171 : 
; 1172 : 	_Myt& assign(size_type _Count, _Elem _Ch)
; 1173 : 		{	// assign _Count * _Ch
; 1174 : 		if (_Count == npos)
; 1175 : 			_Xlen();	// result too long
; 1176 : 
; 1177 : 		if (_Grow(_Count))
; 1178 : 			{	// make room and assign new stuff
; 1179 : 			_Chassign(0, _Count, _Ch);
; 1180 : 			_Eos(_Count);
; 1181 : 			}
; 1182 : 		return (*this);
; 1183 : 		}
; 1184 : 
; 1185 : 	template<class _Iter>
; 1186 : 		typename enable_if<_Is_iterator<_Iter>::value,
; 1187 : 			_Myt&>::type
; 1188 : 		assign(_Iter _First, _Iter _Last)
; 1189 : 		{	// assign [_First, _Last), input iterators
; 1190 : 		return (replace(begin(), end(), _First, _Last));
; 1191 : 		}
; 1192 : 
; 1193 : 	_Myt& assign(const_pointer _First, const_pointer _Last)
; 1194 : 		{	// assign [_First, _Last), const pointers
; 1195 : 		return (replace(begin(), end(), _First, _Last));
; 1196 : 		}
; 1197 : 
; 1198 : 	_Myt& assign(const_iterator _First, const_iterator _Last)
; 1199 : 		{	// assign [_First, _Last), const_iterators
; 1200 : 		return (replace(begin(), end(), _First, _Last));
; 1201 : 		}
; 1202 : 
; 1203 : 	_Myt& insert(size_type _Off, const _Myt& _Right)
; 1204 : 		{	// insert _Right at _Off
; 1205 : 		return (insert(_Off, _Right, 0, npos));
; 1206 : 		}
; 1207 : 
; 1208 : 	_Myt& insert(size_type _Off,
; 1209 : 		const _Myt& _Right, size_type _Roff, size_type _Count)
; 1210 : 		{	// insert _Right [_Roff, _Roff + _Count) at _Off
; 1211 : 		if (this->_Mysize < _Off || _Right.size() < _Roff)
; 1212 : 			_Xran();	// _Off or _Roff off end
; 1213 : 		size_type _Num = _Right.size() - _Roff;
; 1214 : 		if (_Num < _Count)
; 1215 : 			_Count = _Num;	// trim _Count to size
; 1216 : 		if (npos - this->_Mysize <= _Count)
; 1217 : 			_Xlen();	// result too long
; 1218 : 
; 1219 : 		if (0 < _Count && _Grow(_Num = this->_Mysize + _Count))
; 1220 : 			{	// make room and insert new stuff
; 1221 : 			_Traits::move(this->_Myptr() + _Off + _Count,
; 1222 : 				this->_Myptr() + _Off,
; 1223 : 				this->_Mysize - _Off);	// empty out hole
; 1224 : 			if (this == &_Right)
; 1225 : 				_Traits::move(this->_Myptr() + _Off,
; 1226 : 					this->_Myptr() + (_Off < _Roff ? _Roff + _Count : _Roff),
; 1227 : 						_Count);	// substring
; 1228 : 			else
; 1229 : 				_Traits::copy(this->_Myptr() + _Off,
; 1230 : 					_Right._Myptr() + _Roff, _Count);	// fill hole
; 1231 : 			_Eos(_Num);
; 1232 : 			}
; 1233 : 		return (*this);
; 1234 : 		}
; 1235 : 
; 1236 : 	_Myt& insert(size_type _Off,
; 1237 : 		const _Elem *_Ptr, size_type _Count)
; 1238 : 		{	// insert [_Ptr, _Ptr + _Count) at _Off
; 1239 :  #if _ITERATOR_DEBUG_LEVEL == 2
; 1240 : 		if (_Count != 0)
; 1241 : 			_DEBUG_POINTER(_Ptr);
; 1242 :  #endif /* _ITERATOR_DEBUG_LEVEL == 2 */
; 1243 : 
; 1244 : 		if (_Inside(_Ptr))
; 1245 : 			return (insert(_Off, *this,
; 1246 : 				_Ptr - this->_Myptr(), _Count));	// substring
; 1247 : 		if (this->_Mysize < _Off)
; 1248 : 			_Xran();	// _Off off end
; 1249 : 		if (npos - this->_Mysize <= _Count)
; 1250 : 			_Xlen();	// result too long
; 1251 : 		size_type _Num;
; 1252 : 		if (0 < _Count && _Grow(_Num = this->_Mysize + _Count))
; 1253 : 			{	// make room and insert new stuff
; 1254 : 			_Traits::move(this->_Myptr() + _Off + _Count,
; 1255 : 				this->_Myptr() + _Off,
; 1256 : 				this->_Mysize - _Off);	// empty out hole
; 1257 : 			_Traits::copy(this->_Myptr() + _Off, _Ptr, _Count);	// fill hole
; 1258 : 			_Eos(_Num);
; 1259 : 			}
; 1260 : 		return (*this);
; 1261 : 		}
; 1262 : 
; 1263 : 	_Myt& insert(size_type _Off, const _Elem *_Ptr)
; 1264 : 		{	// insert [_Ptr, <null>) at _Off
; 1265 : 		_DEBUG_POINTER(_Ptr);
; 1266 : 		return (insert(_Off, _Ptr, _Traits::length(_Ptr)));
; 1267 : 		}
; 1268 : 
; 1269 : 	_Myt& insert(size_type _Off,
; 1270 : 		size_type _Count, _Elem _Ch)
; 1271 : 		{	// insert _Count * _Ch at _Off
; 1272 : 		if (this->_Mysize < _Off)
; 1273 : 			_Xran();	// _Off off end
; 1274 : 		if (npos - this->_Mysize <= _Count)
; 1275 : 			_Xlen();	// result too long
; 1276 : 		size_type _Num;
; 1277 : 		if (0 < _Count && _Grow(_Num = this->_Mysize + _Count))
; 1278 : 			{	// make room and insert new stuff
; 1279 : 			_Traits::move(this->_Myptr() + _Off + _Count,
; 1280 : 				this->_Myptr() + _Off,
; 1281 : 				this->_Mysize - _Off);	// empty out hole
; 1282 : 			_Chassign(_Off, _Count, _Ch);	// fill hole
; 1283 : 			_Eos(_Num);
; 1284 : 			}
; 1285 : 		return (*this);
; 1286 : 		}
; 1287 : 
; 1288 : 	iterator insert(const_iterator _Where)
; 1289 : 		{	// insert <null> at _Where
; 1290 : 		return (insert(_Where, _Elem()));
; 1291 : 		}
; 1292 : 
; 1293 : 	iterator insert(const_iterator _Where, _Elem _Ch)
; 1294 : 		{	// insert _Ch at _Where
; 1295 : 		size_type _Off = _Pdif(_Where, begin());
; 1296 : 		insert(_Off, 1, _Ch);
; 1297 : 		return (begin() + _Off);
; 1298 : 		}
; 1299 : 
; 1300 : 	iterator insert(const_iterator _Where, size_type _Count, _Elem _Ch)
; 1301 : 		{	// insert _Count * _Elem at _Where
; 1302 : 		size_type _Off = _Pdif(_Where, begin());
; 1303 : 		insert(_Off, _Count, _Ch);
; 1304 : 		return (begin() + _Off);
; 1305 : 		}
; 1306 : 
; 1307 : 	template<class _Iter>
; 1308 : 		typename enable_if<_Is_iterator<_Iter>::value,
; 1309 : 			iterator>::type
; 1310 : 		insert(const_iterator _Where, _Iter _First, _Iter _Last)
; 1311 : 		{	// insert [_First, _Last) at _Where, input iterators
; 1312 : 		size_type _Off = _Pdif(_Where, begin());
; 1313 : 		replace(_Where, _Where, _First, _Last);
; 1314 : 		return (begin() + _Off);
; 1315 : 		}
; 1316 : 
; 1317 : 	iterator insert(const_iterator _Where,
; 1318 : 		const_pointer _First, const_pointer _Last)
; 1319 : 		{	// insert [_First, _Last) at _Where, const pointers
; 1320 : 		size_type _Off = _Pdif(_Where, begin());
; 1321 : 		replace(_Where, _Where, _First, _Last);
; 1322 : 		return (begin() + _Off);
; 1323 : 		}
; 1324 : 
; 1325 : 	iterator insert(const_iterator _Where,
; 1326 : 		const_iterator _First, const_iterator _Last)
; 1327 : 		{	// insert [_First, _Last) at _Where, const_iterators
; 1328 : 		size_type _Off = _Pdif(_Where, begin());
; 1329 : 		replace(_Where, _Where, _First, _Last);
; 1330 : 		return (begin() + _Off);
; 1331 : 		}
; 1332 : 
; 1333 : 	_Myt& erase(size_type _Off = 0)
; 1334 : 		{	// erase elements [_Off, ...)
; 1335 : 		if (this->_Mysize < _Off)
; 1336 : 			_Xran();	// _Off off end
; 1337 : 		_Eos(_Off);
; 1338 : 		return (*this);
; 1339 : 		}
; 1340 : 
; 1341 : 	_Myt& erase(size_type _Off, size_type _Count)
; 1342 : 		{	// erase elements [_Off, _Off + _Count)
; 1343 : 		if (this->_Mysize < _Off)
; 1344 : 			_Xran();	// _Off off end
; 1345 : 		if (this->_Mysize - _Off <= _Count)
; 1346 : 			_Eos(_Off);	// erase elements [_Off, ...)
; 1347 : 		else if (0 < _Count)
; 1348 : 			{	// move elements down
; 1349 : 			value_type *_Ptr = this->_Myptr() + _Off;
; 1350 : 			size_type _Newsize = this->_Mysize - _Count;
; 1351 : 			_Traits::move(_Ptr, _Ptr + _Count, _Newsize - _Off);
; 1352 : 			_Eos(_Newsize);
; 1353 : 			}
; 1354 : 		return (*this);
; 1355 : 		}
; 1356 : 
; 1357 : 	iterator erase(const_iterator _Where)
; 1358 : 		{	// erase element at _Where
; 1359 : 		size_type _Count = _Pdif(_Where, begin());
; 1360 : 		erase(_Count, 1);
; 1361 : 		return (_STRING_ITERATOR(this->_Myptr() + _Count));
; 1362 : 		}
; 1363 : 
; 1364 : 	iterator erase(const_iterator _First, const_iterator _Last)
; 1365 : 		{	// erase substring [_First, _Last)
; 1366 : 		_DEBUG_RANGE(_First, _Last);
; 1367 : 		size_type _Count = _Pdif(_First, begin());
; 1368 : 		erase(_Count, _Pdif(_Last, _First));
; 1369 : 		return (_STRING_ITERATOR(this->_Myptr() + _Count));
; 1370 : 		}
; 1371 : 
; 1372 : 	void clear() _NOEXCEPT
; 1373 : 		{	// erase all
; 1374 : 		_Eos(0);
; 1375 : 		}
; 1376 : 
; 1377 : 	_Myt& replace(size_type _Off, size_type _N0, const _Myt& _Right)
; 1378 : 		{	// replace [_Off, _Off + _N0) with _Right
; 1379 : 		return (replace(_Off, _N0, _Right, 0, npos));
; 1380 : 		}
; 1381 : 
; 1382 : 	_Myt& replace(size_type _Off,
; 1383 : 		size_type _N0, const _Myt& _Right, size_type _Roff, size_type _Count)
; 1384 : 		{	// replace [_Off, _Off + _N0) with _Right [_Roff, _Roff + _Count)
; 1385 : 		if (this->_Mysize < _Off || _Right.size() < _Roff)
; 1386 : 			_Xran();	// _Off or _Roff off end
; 1387 : 		if (this->_Mysize - _Off < _N0)
; 1388 : 			_N0 = this->_Mysize - _Off;	// trim _N0 to size
; 1389 : 		size_type _Num = _Right.size() - _Roff;
; 1390 : 		if (_Num < _Count)
; 1391 : 			_Count = _Num;	// trim _Count to size
; 1392 : 		if (npos - _Count <= this->_Mysize - _N0)
; 1393 : 			_Xlen();	// result too long
; 1394 : 
; 1395 : 		size_type _Nm = this->_Mysize - _N0 - _Off;	// length of kept tail
; 1396 : 		size_type _Newsize = this->_Mysize + _Count - _N0;
; 1397 : 		if (this->_Mysize < _Newsize)
; 1398 : 			_Grow(_Newsize);
; 1399 : 
; 1400 : 		if (this != &_Right)
; 1401 : 			{	// no overlap, just move down and copy in new stuff
; 1402 : 			_Traits::move(this->_Myptr() + _Off + _Count,
; 1403 : 				this->_Myptr() + _Off + _N0, _Nm);	// empty hole
; 1404 : 			_Traits::copy(this->_Myptr() + _Off,
; 1405 : 				_Right._Myptr() + _Roff, _Count);	// fill hole
; 1406 : 			}
; 1407 : 		else if (_Count <= _N0)
; 1408 : 			{	// hole doesn't get larger, just copy in substring
; 1409 : 			_Traits::move(this->_Myptr() + _Off,
; 1410 : 				this->_Myptr() + _Roff, _Count);	// fill hole
; 1411 : 			_Traits::move(this->_Myptr() + _Off + _Count,
; 1412 : 				this->_Myptr() + _Off + _N0, _Nm);	// move tail down
; 1413 : 			}
; 1414 : 		else if (_Roff <= _Off)
; 1415 : 			{	// hole gets larger, substring begins before hole
; 1416 : 			_Traits::move(this->_Myptr() + _Off + _Count,
; 1417 : 				this->_Myptr() + _Off + _N0, _Nm);	// move tail down
; 1418 : 			_Traits::move(this->_Myptr() + _Off,
; 1419 : 				this->_Myptr() + _Roff, _Count);	// fill hole
; 1420 : 			}
; 1421 : 		else if (_Off + _N0 <= _Roff)
; 1422 : 			{	// hole gets larger, substring begins after hole
; 1423 : 			_Traits::move(this->_Myptr() + _Off + _Count,
; 1424 : 				this->_Myptr() + _Off + _N0, _Nm);	// move tail down
; 1425 : 			_Traits::move(this->_Myptr() + _Off,
; 1426 : 				this->_Myptr() + (_Roff + _Count - _N0),
; 1427 : 				_Count);	// fill hole
; 1428 : 			}
; 1429 : 		else
; 1430 : 			{	// hole gets larger, substring begins in hole
; 1431 : 			_Traits::move(this->_Myptr() + _Off,
; 1432 : 				this->_Myptr() + _Roff, _N0);	// fill old hole
; 1433 : 			_Traits::move(this->_Myptr() + _Off + _Count,
; 1434 : 				this->_Myptr() + _Off + _N0, _Nm);	// move tail down
; 1435 : 			_Traits::move(this->_Myptr() + _Off + _N0,
; 1436 : 				this->_Myptr() + _Roff + _Count,
; 1437 : 				_Count - _N0);	// fill rest of new hole
; 1438 : 			}
; 1439 : 
; 1440 : 		_Eos(_Newsize);
; 1441 : 		return (*this);
; 1442 : 		}
; 1443 : 
; 1444 : 	_Myt& replace(size_type _Off,
; 1445 : 		size_type _N0, const _Elem *_Ptr, size_type _Count)
; 1446 : 		{	// replace [_Off, _Off + _N0) with [_Ptr, _Ptr + _Count)
; 1447 :  #if _ITERATOR_DEBUG_LEVEL == 2
; 1448 : 		if (_Count != 0)
; 1449 : 			_DEBUG_POINTER(_Ptr);
; 1450 :  #endif /* _ITERATOR_DEBUG_LEVEL == 2 */
; 1451 : 
; 1452 : 		if (_Inside(_Ptr))
; 1453 : 			return (replace(_Off, _N0, *this,
; 1454 : 				_Ptr - this->_Myptr(),
; 1455 : 				_Count));	// substring, replace carefully
; 1456 : 		if (this->_Mysize < _Off)
; 1457 : 			_Xran();	// _Off off end
; 1458 : 		if (this->_Mysize - _Off < _N0)
; 1459 : 			_N0 = this->_Mysize - _Off;	// trim _N0 to size
; 1460 : 		if (npos - _Count <= this->_Mysize - _N0)
; 1461 : 			_Xlen();	// result too long
; 1462 : 		size_type _Nm = this->_Mysize - _N0 - _Off;
; 1463 : 
; 1464 : 		if (_Count < _N0)
; 1465 : 			_Traits::move(this->_Myptr() + _Off + _Count,
; 1466 : 				this->_Myptr() + _Off + _N0,
; 1467 : 				_Nm);	// smaller hole, move tail up
; 1468 : 		size_type _Num;
; 1469 : 		if ((0 < _Count || 0 < _N0)
; 1470 : 			&& _Grow(_Num = this->_Mysize + _Count - _N0))
; 1471 : 			{	// make room and rearrange
; 1472 : 			if (_N0 < _Count)
; 1473 : 				_Traits::move(this->_Myptr() + _Off + _Count,
; 1474 : 					this->_Myptr() + _Off + _N0, _Nm);	// move tail down
; 1475 : 			_Traits::copy(this->_Myptr() + _Off, _Ptr, _Count);	// fill hole
; 1476 : 			_Eos(_Num);
; 1477 : 			}
; 1478 : 		return (*this);
; 1479 : 		}
; 1480 : 
; 1481 : 	_Myt& replace(size_type _Off, size_type _N0, const _Elem *_Ptr)
; 1482 : 		{	// replace [_Off, _Off + _N0) with [_Ptr, <null>)
; 1483 : 		_DEBUG_POINTER(_Ptr);
; 1484 : 		return (replace(_Off, _N0, _Ptr, _Traits::length(_Ptr)));
; 1485 : 		}
; 1486 : 
; 1487 : 	_Myt& replace(size_type _Off,
; 1488 : 		size_type _N0, size_type _Count, _Elem _Ch)
; 1489 : 		{	// replace [_Off, _Off + _N0) with _Count * _Ch
; 1490 : 		if (this->_Mysize < _Off)
; 1491 : 			_Xran();	// _Off off end
; 1492 : 		if (this->_Mysize - _Off < _N0)
; 1493 : 			_N0 = this->_Mysize - _Off;	// trim _N0 to size
; 1494 : 		if (npos - _Count <= this->_Mysize - _N0)
; 1495 : 			_Xlen();	// result too long
; 1496 : 		size_type _Nm = this->_Mysize - _N0 - _Off;
; 1497 : 
; 1498 : 		if (_Count < _N0)
; 1499 : 			_Traits::move(this->_Myptr() + _Off + _Count,
; 1500 : 				this->_Myptr() + _Off + _N0,
; 1501 : 				_Nm);	// smaller hole, move tail up
; 1502 : 		size_type _Num;
; 1503 : 		if ((0 < _Count || 0 < _N0)
; 1504 : 			&& _Grow(_Num = this->_Mysize + _Count - _N0))
; 1505 : 			{	// make room and rearrange
; 1506 : 			if (_N0 < _Count)
; 1507 : 				_Traits::move(this->_Myptr() + _Off + _Count,
; 1508 : 					this->_Myptr() + _Off + _N0, _Nm);	// move tail down
; 1509 : 			_Chassign(_Off, _Count, _Ch);	// fill hole
; 1510 : 			_Eos(_Num);
; 1511 : 			}
; 1512 : 		return (*this);
; 1513 : 		}
; 1514 : 
; 1515 : 	_Myt& replace(const_iterator _First, const_iterator _Last,
; 1516 : 		const _Myt& _Right)
; 1517 : 		{	// replace [_First, _Last) with _Right
; 1518 : 		return (replace(
; 1519 : 			_Pdif(_First, begin()), _Pdif(_Last, _First), _Right));
; 1520 : 		}
; 1521 : 
; 1522 : 	_Myt& replace(const_iterator _First, const_iterator _Last,
; 1523 : 		const _Elem *_Ptr, size_type _Count)
; 1524 : 		{	// replace [_First, _Last) with [_Ptr, _Ptr + _Count)
; 1525 : 		return (replace(
; 1526 : 			_Pdif(_First, begin()), _Pdif(_Last, _First), _Ptr, _Count));
; 1527 : 		}
; 1528 : 
; 1529 : 	_Myt& replace(const_iterator _First, const_iterator _Last,
; 1530 : 		const _Elem *_Ptr)
; 1531 : 		{	// replace [_First, _Last) with [_Ptr, <null>)
; 1532 : 		return (replace(
; 1533 : 			_Pdif(_First, begin()), _Pdif(_Last, _First), _Ptr));
; 1534 : 		}
; 1535 : 
; 1536 : 	_Myt& replace(const_iterator _First, const_iterator _Last,
; 1537 : 		size_type _Count, _Elem _Ch)
; 1538 : 		{	// replace [_First, _Last) with _Count * _Ch
; 1539 : 		return (replace(
; 1540 : 			_Pdif(_First, begin()), _Pdif(_Last, _First), _Count, _Ch));
; 1541 : 		}
; 1542 : 
; 1543 : 	template<class _Iter>
; 1544 : 		typename enable_if<_Is_iterator<_Iter>::value,
; 1545 : 			_Myt&>::type
; 1546 : 		replace(const_iterator _First, const_iterator _Last,
; 1547 : 			_Iter _First2, _Iter _Last2)
; 1548 : 		{	// replace [_First, _Last) with [_First2, _Last2), input iterators
; 1549 : 		_Myt _Right(_First2, _Last2);
; 1550 : 		replace(_First, _Last, _Right);
; 1551 : 		return (*this);
; 1552 : 		}
; 1553 : 
; 1554 : 	_Myt& replace(const_iterator _First, const_iterator _Last,
; 1555 : 		const_pointer _First2, const_pointer _Last2)
; 1556 : 		{	// replace [_First, _Last) with [_First2, _Last2), const pointers
; 1557 : 		if (_First2 == _Last2)
; 1558 : 			erase(_Pdif(_First, begin()), _Pdif(_Last, _First));
; 1559 : 		else
; 1560 : 			replace(_Pdif(_First, begin()), _Pdif(_Last, _First),
; 1561 : 				&*_First2, _Last2 - _First2);
; 1562 : 		return (*this);
; 1563 : 		}
; 1564 : 
; 1565 : 	_Myt& replace(const_iterator _First, const_iterator _Last,
; 1566 : 		pointer _First2, pointer _Last2)
; 1567 : 		{	// replace [_First, _Last) with [_First2, _Last2), const pointers
; 1568 : 		if (_First2 == _Last2)
; 1569 : 			erase(_Pdif(_First, begin()), _Pdif(_Last, _First));
; 1570 : 		else
; 1571 : 			replace(_Pdif(_First, begin()), _Pdif(_Last, _First),
; 1572 : 				&*_First2, _Last2 - _First2);
; 1573 : 		return (*this);
; 1574 : 		}
; 1575 : 
; 1576 : 	_Myt& replace(const_iterator _First, const_iterator _Last,
; 1577 : 		const_iterator _First2, const_iterator _Last2)
; 1578 : 		{	// replace [_First, _Last) with [_First2, _Last2), const_iterators
; 1579 : 		if (_First2 == _Last2)
; 1580 : 			erase(_Pdif(_First, begin()), _Pdif(_Last, _First));
; 1581 : 		else
; 1582 : 			replace(_Pdif(_First, begin()), _Pdif(_Last, _First),
; 1583 : 				&*_First2, _Last2 - _First2);
; 1584 : 		return (*this);
; 1585 : 		}
; 1586 : 
; 1587 : 	_Myt& replace(const_iterator _First, const_iterator _Last,
; 1588 : 		iterator _First2, iterator _Last2)
; 1589 : 		{	// replace [_First, _Last) with [_First2, _Last2), const_iterators
; 1590 : 		if (_First2 == _Last2)
; 1591 : 			erase(_Pdif(_First, begin()), _Pdif(_Last, _First));
; 1592 : 		else
; 1593 : 			replace(_Pdif(_First, begin()), _Pdif(_Last, _First),
; 1594 : 				&*_First2, _Last2 - _First2);
; 1595 : 		return (*this);
; 1596 : 		}
; 1597 : 
; 1598 : 	iterator begin() _NOEXCEPT
; 1599 : 		{	// return iterator for beginning of mutable sequence
; 1600 : 		return (_STRING_ITERATOR(this->_Myptr()));
; 1601 : 		}
; 1602 : 
; 1603 : 	const_iterator begin() const _NOEXCEPT
; 1604 : 		{	// return iterator for beginning of nonmutable sequence
; 1605 : 		return (_STRING_CONST_ITERATOR(this->_Myptr()));
; 1606 : 		}
; 1607 : 
; 1608 : 	iterator end() _NOEXCEPT
; 1609 : 		{	// return iterator for end of mutable sequence
; 1610 : 		return (_STRING_ITERATOR(this->_Myptr() + this->_Mysize));
; 1611 : 		}
; 1612 : 
; 1613 : 	const_iterator end() const _NOEXCEPT
; 1614 : 		{	// return iterator for end of nonmutable sequence
; 1615 : 		return (_STRING_CONST_ITERATOR(this->_Myptr() + this->_Mysize));
; 1616 : 		}
; 1617 : 
; 1618 : 	reverse_iterator rbegin() _NOEXCEPT
; 1619 : 		{	// return iterator for beginning of reversed mutable sequence
; 1620 : 		return (reverse_iterator(end()));
; 1621 : 		}
; 1622 : 
; 1623 : 	const_reverse_iterator rbegin() const _NOEXCEPT
; 1624 : 		{	// return iterator for beginning of reversed nonmutable sequence
; 1625 : 		return (const_reverse_iterator(end()));
; 1626 : 		}
; 1627 : 
; 1628 : 	reverse_iterator rend() _NOEXCEPT
; 1629 : 		{	// return iterator for end of reversed mutable sequence
; 1630 : 		return (reverse_iterator(begin()));
; 1631 : 		}
; 1632 : 
; 1633 : 	const_reverse_iterator rend() const _NOEXCEPT
; 1634 : 		{	// return iterator for end of reversed nonmutable sequence
; 1635 : 		return (const_reverse_iterator(begin()));
; 1636 : 		}
; 1637 : 
; 1638 : 	const_iterator cbegin() const _NOEXCEPT
; 1639 : 		{	// return iterator for beginning of nonmutable sequence
; 1640 : 		return (((const _Myt *)this)->begin());
; 1641 : 		}
; 1642 : 
; 1643 : 	const_iterator cend() const _NOEXCEPT
; 1644 : 		{	// return iterator for end of nonmutable sequence
; 1645 : 		return (((const _Myt *)this)->end());
; 1646 : 		}
; 1647 : 
; 1648 : 	const_reverse_iterator crbegin() const _NOEXCEPT
; 1649 : 		{	// return iterator for beginning of reversed nonmutable sequence
; 1650 : 		return (((const _Myt *)this)->rbegin());
; 1651 : 		}
; 1652 : 
; 1653 : 	const_reverse_iterator crend() const _NOEXCEPT
; 1654 : 		{	// return iterator for end of reversed nonmutable sequence
; 1655 : 		return (((const _Myt *)this)->rend());
; 1656 : 		}
; 1657 : 
; 1658 : 	void shrink_to_fit()
; 1659 : 		{	// reduce capacity
; 1660 : 		if ((size() | this->_ALLOC_MASK) < capacity())
; 1661 : 			{	// worth shrinking, do it
; 1662 : 			_Myt _Tmp(*this);
; 1663 : 			swap(_Tmp);
; 1664 : 			}
; 1665 : 		}
; 1666 : 
; 1667 : 	reference at(size_type _Off)
; 1668 : 		{	// subscript mutable sequence with checking
; 1669 : 		if (this->_Mysize <= _Off)
; 1670 : 			_Xran();	// _Off off end
; 1671 : 		return (this->_Myptr()[_Off]);
; 1672 : 		}
; 1673 : 
; 1674 : 	const_reference at(size_type _Off) const
; 1675 : 		{	// subscript nonmutable sequence with checking
; 1676 : 		if (this->_Mysize <= _Off)
; 1677 : 			_Xran();	// _Off off end
; 1678 : 		return (this->_Myptr()[_Off]);
; 1679 : 		}
; 1680 : 
; 1681 : 	reference operator[](size_type _Off)
; 1682 : 		{	// subscript mutable sequence
; 1683 :  #if _ITERATOR_DEBUG_LEVEL == 2
; 1684 : 		if (this->_Mysize < _Off)	// sic
; 1685 : 			_DEBUG_ERROR("string subscript out of range");
; 1686 : 
; 1687 :  #elif _ITERATOR_DEBUG_LEVEL == 1
; 1688 : 		_SCL_SECURE_VALIDATE_RANGE(_Off <= this->_Mysize);	// sic
; 1689 :  #endif /* _ITERATOR_DEBUG_LEVEL == 2 */
; 1690 : 
; 1691 : 		return (this->_Myptr()[_Off]);
; 1692 : 		}
; 1693 : 
; 1694 : 	const_reference operator[](size_type _Off) const
; 1695 : 		{	// subscript nonmutable sequence
; 1696 :  #if _ITERATOR_DEBUG_LEVEL == 2
; 1697 : 		if (this->_Mysize < _Off)	// sic
; 1698 : 			_DEBUG_ERROR("string subscript out of range");
; 1699 : 
; 1700 :  #elif _ITERATOR_DEBUG_LEVEL == 1
; 1701 : 		_SCL_SECURE_VALIDATE_RANGE(_Off <= this->_Mysize);	// sic
; 1702 :  #endif /* _ITERATOR_DEBUG_LEVEL == 2 */
; 1703 : 
; 1704 : 		return (this->_Myptr()[_Off]);
; 1705 : 		}
; 1706 : 
; 1707 : 	void push_back(_Elem _Ch)
; 1708 : 		{	// insert element at end
; 1709 : 		insert(end(), _Ch);
; 1710 : 		}
; 1711 : 
; 1712 : 	void pop_back()
; 1713 : 		{	// erase element at end
; 1714 : 		erase(this->_Mysize - 1);	// throws if _Mysize == 0
; 1715 : 		}
; 1716 : 
; 1717 : 	reference front()
; 1718 : 		{	// return first element of mutable sequence
; 1719 : 		return (*begin());
; 1720 : 		}
; 1721 : 
; 1722 : 	const_reference front() const
; 1723 : 		{	// return first element of nonmutable sequence
; 1724 : 		return (*begin());
; 1725 : 		}
; 1726 : 
; 1727 : 	reference back()
; 1728 : 		{	// return last element of mutable sequence
; 1729 : 		return (*(end() - 1));
; 1730 : 		}
; 1731 : 
; 1732 : 	const_reference back() const
; 1733 : 		{	// return last element of nonmutable sequence
; 1734 : 		return (*(end() - 1));
; 1735 : 		}
; 1736 : 
; 1737 : 	const _Elem *c_str() const _NOEXCEPT
; 1738 : 		{	// return pointer to null-terminated nonmutable array
; 1739 : 		return (this->_Myptr());
; 1740 : 		}
; 1741 : 
; 1742 : 	const _Elem *data() const _NOEXCEPT
; 1743 : 		{	// return pointer to nonmutable array
; 1744 : 		return (c_str());
; 1745 : 		}
; 1746 : 
; 1747 : 	size_type length() const _NOEXCEPT
; 1748 : 		{	// return length of sequence
; 1749 : 		return (this->_Mysize);
; 1750 : 		}
; 1751 : 
; 1752 : 	size_type size() const _NOEXCEPT
; 1753 : 		{	// return length of sequence
; 1754 : 		return (this->_Mysize);
; 1755 : 		}
; 1756 : 
; 1757 : 	size_type max_size() const _NOEXCEPT
; 1758 : 		{	// return maximum possible length of sequence
; 1759 : 		size_type _Num = this->_Getal().max_size();
; 1760 : 		return (_Num <= 1 ? 1 : _Num - 1);
; 1761 : 		}
; 1762 : 
; 1763 : 	void resize(size_type _Newsize)
; 1764 : 		{	// determine new length, padding with null elements as needed
; 1765 : 		resize(_Newsize, _Elem());
; 1766 : 		}
; 1767 : 
; 1768 : 	void resize(size_type _Newsize, _Elem _Ch)
; 1769 : 		{	// determine new length, padding with _Ch elements as needed
; 1770 : 		if (_Newsize <= this->_Mysize)
; 1771 : 			_Eos(_Newsize);
; 1772 : 		else
; 1773 : 			append(_Newsize - this->_Mysize, _Ch);
; 1774 : 		}
; 1775 : 
; 1776 : 	size_type capacity() const _NOEXCEPT
; 1777 : 		{	// return current length of allocated storage
; 1778 : 		return (this->_Myres);
; 1779 : 		}
; 1780 : 
; 1781 : 	void reserve(size_type _Newcap = 0)
; 1782 : 		{	// determine new minimum length of allocated storage
; 1783 : 		if (this->_Mysize <= _Newcap && this->_Myres != _Newcap)
; 1784 : 			{	// change reservation
; 1785 : 			size_type _Size = this->_Mysize;
; 1786 : 			if (_Grow(_Newcap, true))
; 1787 : 				_Eos(_Size);
; 1788 : 			}
; 1789 : 		}
; 1790 : 
; 1791 : 	bool empty() const _NOEXCEPT
; 1792 : 		{	// test if sequence is empty
; 1793 : 		return (this->_Mysize == 0);
; 1794 : 		}
; 1795 : 
; 1796 : 	_SCL_INSECURE_DEPRECATE
; 1797 : 
; 1798 : 	size_type copy(_Elem *_Ptr,
; 1799 : 		size_type _Count, size_type _Off = 0) const
; 1800 : 		{	// copy [_Off, _Off + _Count) to [_Ptr, _Ptr + _Count)
; 1801 :  #if _ITERATOR_DEBUG_LEVEL == 2
; 1802 : 		if (_Count != 0)
; 1803 : 			_DEBUG_POINTER(_Ptr);
; 1804 :  #endif /* _ITERATOR_DEBUG_LEVEL == 2 */
; 1805 : 
; 1806 : 		if (this->_Mysize < _Off)
; 1807 : 			_Xran();	// _Off off end
; 1808 : 		if (this->_Mysize - _Off < _Count)
; 1809 : 			_Count = this->_Mysize - _Off;
; 1810 : 		_Traits::copy(_Ptr, this->_Myptr() + _Off, _Count);
; 1811 : 		return (_Count);
; 1812 : 		}
; 1813 : 
; 1814 : 	size_type _Copy_s(_Elem *_Dest, size_type _Dest_size,
; 1815 : 		size_type _Count, size_type _Off = 0) const
; 1816 : 		{	// copy [_Off, _Off + _Count) to [_Dest, _Dest + _Count)
; 1817 :  #if _ITERATOR_DEBUG_LEVEL == 2
; 1818 : 		if (_Count != 0)
; 1819 : 			_DEBUG_POINTER(_Dest);
; 1820 :  #endif /* _ITERATOR_DEBUG_LEVEL == 2 */
; 1821 : 
; 1822 : 		if (this->_Mysize < _Off)
; 1823 : 			_Xran();	// _Off off end
; 1824 : 		if (this->_Mysize - _Off < _Count)
; 1825 : 			_Count = this->_Mysize - _Off;
; 1826 : 		_Traits::_Copy_s(_Dest, _Dest_size, this->_Myptr() + _Off, _Count);
; 1827 : 		return (_Count);
; 1828 : 		}
; 1829 : 
; 1830 : 	void _Swap_bx(_Myt& _Right)
; 1831 : 		{	// exchange _Bx with _Right._Bx
; 1832 : 		if (this->_BUF_SIZE <= this->_Myres)
; 1833 : 			if (this->_BUF_SIZE <= _Right._Myres)
; 1834 : 				_Swap_adl(this->_Bx._Ptr, _Right._Bx._Ptr);
; 1835 : 			else
; 1836 : 				{	// swap large with small
; 1837 : 				pointer _Ptr = this->_Bx._Ptr;
; 1838 : 				this->_Getal().destroy(&this->_Bx._Ptr);
; 1839 : 				_Traits::copy(this->_Bx._Buf,
; 1840 : 					_Right._Bx._Buf, _Right._Mysize + 1);
; 1841 : 				this->_Getal().construct(&_Right._Bx._Ptr, _Ptr);
; 1842 : 				}
; 1843 : 		else
; 1844 : 			if (_Right._Myres < this->_BUF_SIZE)
; 1845 : 				_STD swap(this->_Bx._Buf, _Right._Bx._Buf);
; 1846 : 			else
; 1847 : 				{	// swap small with large
; 1848 : 				pointer _Ptr = _Right._Bx._Ptr;
; 1849 : 				this->_Getal().destroy(&_Right._Bx._Ptr);
; 1850 : 				_Traits::copy(_Right._Bx._Buf,
; 1851 : 					this->_Bx._Buf, this->_Mysize + 1);
; 1852 : 				this->_Getal().construct(&this->_Bx._Ptr, _Ptr);
; 1853 : 				}
; 1854 : 		}
; 1855 : 
; 1856 : 	void swap(_Myt& _Right)
; 1857 : 		{	// exchange contents with _Right
; 1858 : 		if (this == &_Right)
; 1859 : 			;	// same object, do nothing
; 1860 : 		else if (this->_Getal() == _Right._Getal())
; 1861 : 			{	// same allocator, swap control information
; 1862 : 			this->_Swap_all(_Right);
; 1863 : 			_Swap_bx(_Right);
; 1864 : 			_STD swap(this->_Mysize, _Right._Mysize);
; 1865 : 			_STD swap(this->_Myres, _Right._Myres);
; 1866 : 			}
; 1867 : 
; 1868 : 		else if (_Alty::propagate_on_container_swap::value)
; 1869 : 			{	// swap allocators and control information
; 1870 : 			this->_Swap_alloc(_Right);
; 1871 : 			_Swap_bx(_Right);
; 1872 : 			_STD swap(this->_Bx, _Right._Bx);	// pointer bitwise copyable?
; 1873 : 			_STD swap(this->_Mysize, _Right._Mysize);
; 1874 : 			_STD swap(this->_Myres, _Right._Myres);
; 1875 : 			}
; 1876 : 
; 1877 : 		else
; 1878 : 			{	// different allocator, do multiple assigns
; 1879 : 			_Myt _Tmp = *this;
; 1880 : 
; 1881 : 			*this = _Right;
; 1882 : 			_Right = _Tmp;
; 1883 : 			}
; 1884 : 		}
; 1885 : 
; 1886 : 	size_type find(const _Myt& _Right, size_type _Off = 0) const _NOEXCEPT
